
blinking.elf:     file format elf32-littlearm
blinking.elf
architecture: armv7e-m, flags 0x00000112:
EXEC_P, HAS_SYMS, D_PAGED
start address 0x1a0010c1

Program Header:
0x70000001 off    0x0001294c vaddr 0x1a00294c paddr 0x1a00294c align 2**2
         filesz 0x00000008 memsz 0x00000008 flags r--
    LOAD off    0x00000000 vaddr 0x10000000 paddr 0x10000000 align 2**16
         filesz 0x000000b4 memsz 0x000001a8 flags rw-
    LOAD off    0x00010000 vaddr 0x1a000000 paddr 0x1a000000 align 2**16
         filesz 0x00002954 memsz 0x00002954 flags r-x
    LOAD off    0x00020000 vaddr 0x10000000 paddr 0x1a002954 align 2**16
         filesz 0x000000d4 memsz 0x000000d4 flags rw-
private flags = 5000400: [Version5 EABI] [hard-float ABI]

Sections:
Idx Name          Size      VMA       LMA       File off  Algn
  0 .text         0000294c  1a000000  1a000000  00010000  2**4
                  CONTENTS, ALLOC, LOAD, READONLY, CODE
  1 .data         000000d4  10000000  1a002954  00020000  2**2
                  CONTENTS, ALLOC, LOAD, DATA
  2 .data_RAM2    00000000  10080000  10080000  000200d4  2**2
                  CONTENTS
  3 .data_RAM3    00000000  20000000  20000000  000200d4  2**2
                  CONTENTS
  4 .data_RAM4    00000000  20008000  20008000  000200d4  2**2
                  CONTENTS
  5 .data_RAM5    00000000  2000c000  2000c000  000200d4  2**2
                  CONTENTS
  6 .bss          000000d4  100000d4  100000d4  000000d4  2**2
                  ALLOC
  7 .bss_RAM2     00000000  10080000  10080000  000200d4  2**2
                  CONTENTS
  8 .bss_RAM3     00000000  20000000  20000000  000200d4  2**2
                  CONTENTS
  9 .bss_RAM4     00000000  20008000  20008000  000200d4  2**2
                  CONTENTS
 10 .bss_RAM5     00000000  2000c000  2000c000  000200d4  2**2
                  CONTENTS
 11 .ARM.exidx    00000008  1a00294c  1a00294c  0001294c  2**2
                  CONTENTS, ALLOC, LOAD, READONLY, DATA
 12 .uninit_RESERVED 00000000  10000000  10000000  000200d4  2**2
                  CONTENTS
 13 .noinit_RAM2  00000000  10080000  10080000  000200d4  2**2
                  CONTENTS
 14 .noinit_RAM3  00000000  20000000  20000000  000200d4  2**2
                  CONTENTS
 15 .noinit_RAM4  00000000  20008000  20008000  000200d4  2**2
                  CONTENTS
 16 .noinit_RAM5  00000000  2000c000  2000c000  000200d4  2**2
                  CONTENTS
 17 .noinit       00000000  100001a8  100001a8  000200d4  2**2
                  CONTENTS
 18 .debug_info   0000e6d0  00000000  00000000  000200d4  2**0
                  CONTENTS, READONLY, DEBUGGING
 19 .debug_abbrev 000026e8  00000000  00000000  0002e7a4  2**0
                  CONTENTS, READONLY, DEBUGGING
 20 .debug_loc    00004244  00000000  00000000  00030e8c  2**0
                  CONTENTS, READONLY, DEBUGGING
 21 .debug_aranges 00000598  00000000  00000000  000350d0  2**0
                  CONTENTS, READONLY, DEBUGGING
 22 .debug_ranges 000005c8  00000000  00000000  00035668  2**0
                  CONTENTS, READONLY, DEBUGGING
 23 .debug_macro  000087f2  00000000  00000000  00035c30  2**0
                  CONTENTS, READONLY, DEBUGGING
 24 .debug_line   000082e9  00000000  00000000  0003e422  2**0
                  CONTENTS, READONLY, DEBUGGING
 25 .debug_str    0001cdb8  00000000  00000000  0004670b  2**0
                  CONTENTS, READONLY, DEBUGGING
 26 .comment      00000068  00000000  00000000  000634c3  2**0
                  CONTENTS, READONLY
 27 .ARM.attributes 00000032  00000000  00000000  0006352b  2**0
                  CONTENTS, READONLY
 28 .debug_frame  000013c8  00000000  00000000  00063560  2**2
                  CONTENTS, READONLY, DEBUGGING
SYMBOL TABLE:
1a000000 l    d  .text	00000000 .text
10000000 l    d  .data	00000000 .data
10080000 l    d  .data_RAM2	00000000 .data_RAM2
20000000 l    d  .data_RAM3	00000000 .data_RAM3
20008000 l    d  .data_RAM4	00000000 .data_RAM4
2000c000 l    d  .data_RAM5	00000000 .data_RAM5
100000d4 l    d  .bss	00000000 .bss
10080000 l    d  .bss_RAM2	00000000 .bss_RAM2
20000000 l    d  .bss_RAM3	00000000 .bss_RAM3
20008000 l    d  .bss_RAM4	00000000 .bss_RAM4
2000c000 l    d  .bss_RAM5	00000000 .bss_RAM5
1a00294c l    d  .ARM.exidx	00000000 .ARM.exidx
10000000 l    d  .uninit_RESERVED	00000000 .uninit_RESERVED
10080000 l    d  .noinit_RAM2	00000000 .noinit_RAM2
20000000 l    d  .noinit_RAM3	00000000 .noinit_RAM3
20008000 l    d  .noinit_RAM4	00000000 .noinit_RAM4
2000c000 l    d  .noinit_RAM5	00000000 .noinit_RAM5
100001a8 l    d  .noinit	00000000 .noinit
00000000 l    d  .debug_info	00000000 .debug_info
00000000 l    d  .debug_abbrev	00000000 .debug_abbrev
00000000 l    d  .debug_loc	00000000 .debug_loc
00000000 l    d  .debug_aranges	00000000 .debug_aranges
00000000 l    d  .debug_ranges	00000000 .debug_ranges
00000000 l    d  .debug_macro	00000000 .debug_macro
00000000 l    d  .debug_line	00000000 .debug_line
00000000 l    d  .debug_str	00000000 .debug_str
00000000 l    d  .comment	00000000 .comment
00000000 l    d  .ARM.attributes	00000000 .ARM.attributes
00000000 l    d  .debug_frame	00000000 .debug_frame
00000000 l    df *ABS*	00000000 cr_startup_lpc43xx.c
00000000 l    df *ABS*	00000000 crp.c
00000000 l    df *ABS*	00000000 enigma.c
100000d4 l     O .bss	000000a8 machine
00000000 l    df *ABS*	00000000 main.c
1000017c l     O .bss	00000004 tick_ct
00000000 l    df *ABS*	00000000 rotor.c
10000180 l     O .bss	00000001 lastStateA.11713
00000000 l    df *ABS*	00000000 sysinit_18xx_43xx.c
1a002660 l     O .text	00000048 InitClkStates
00000000 l    df *ABS*	00000000 fpu_init.c
00000000 l    df *ABS*	00000000 chip_18xx_43xx.c
00000000 l    df *ABS*	00000000 clock_18xx_43xx.c
1a000894 l     F .text	000000a0 pll_calc_divs
1a000934 l     F .text	00000100 pll_get_frac
1a000a34 l     F .text	0000004c Chip_Clock_FindBaseClock
1a000ca8 l     F .text	00000022 Chip_Clock_GetDivRate
10000184 l     O .bss	00000008 audio_usb_pll_freq
1a0026b4 l     O .text	0000006c periph_to_base
00000000 l    df *ABS*	00000000 gpio_18xx_43xx.c
00000000 l    df *ABS*	00000000 uart_18xx_43xx.c
1a000e08 l     F .text	0000002c Chip_UART_GetIndex
1a002720 l     O .text	00000008 UART_BClock
1a002728 l     O .text	00000008 UART_PClock
00000000 l    df *ABS*	00000000 sysinit.c
00000000 l    df *ABS*	00000000 system.c
1000018c l     O .bss	00000004 heap_end.11990
00000000 l    df *ABS*	00000000 board_sysinit.c
1a002730 l     O .text	0000000c InitClkStates
1a00273c l     O .text	00000060 pinmuxing
00000000 l    df *ABS*	00000000 board.c
1a00113c l     F .text	00000044 Board_LED_Init
1a0027a4 l     O .text	0000000c gpioLEDBits
00000000 l    df *ABS*	00000000 _aeabi_uldivmod.o
00000000 l    df *ABS*	00000000 libgcc2.c
00000000 l    df *ABS*	00000000 _dvmd_tls.o
00000000 l    df *ABS*	00000000 memset.c
00000000 l    df *ABS*	00000000 printf.c
00000000 l    df *ABS*	00000000 putchar.c
00000000 l    df *ABS*	00000000 strchr.c
00000000 l    df *ABS*	00000000 findfp.c
1a001608 l     F .text	00000048 std
00000000 l    df *ABS*	00000000 fwalk.c
00000000 l    df *ABS*	00000000 lock.c
00000000 l    df *ABS*	00000000 nano-mallocr.c
00000000 l    df *ABS*	00000000 nano-vfprintf.c
1a0018ac l     F .text	0000002e __sfputc_r
00000000 l    df *ABS*	00000000 nano-vfprintf_i.c
00000000 l    df *ABS*	00000000 putc.c
00000000 l    df *ABS*	00000000 stdio.c
00000000 l    df *ABS*	00000000 wbuf.c
00000000 l    df *ABS*	00000000 wsetup.c
00000000 l    df *ABS*	00000000 fflush.c
00000000 l    df *ABS*	00000000 makebuf.c
00000000 l    df *ABS*	00000000 lib_a-memchr.o
00000000 l    df *ABS*	00000000 mlock.c
00000000 l    df *ABS*	00000000 nano-mallocr.c
00000000 l    df *ABS*	00000000 ctype_.c
00000000 l    df *ABS*	00000000 impure.c
10000074 l     O .data	00000060 impure_data
1a0015c4 g     F .text	00000028 putchar
1a000acc g     F .text	0000001c Chip_Clock_GetDividerSource
1a000f84 g     F .text	00000012 _isatty_r
1a000684 g     F .text	0000003c RotaryEncoder_Read
1a00018a  w    F .text	00000002 TIMER2_IRQHandler
1a000184  w    F .text	00000002 DebugMon_Handler
1a000f96 g     F .text	0000000a _lseek_r
1a00018a  w    F .text	00000002 RIT_IRQHandler
1a080000 g       *ABS*	00000000 __top_MFlashA512
1a00018a  w    F .text	00000002 ADCHS_IRQHandler
1a000114 g       .text	00000000 __section_table_start
1a00018a  w    F .text	00000002 FLASH_EEPROM_IRQHandler
1a00018a  w    F .text	00000002 I2C0_IRQHandler
1a000de2 g     F .text	00000024 Chip_GPIO_SetDir
1a001594 g     F .text	00000030 printf
1000019c g     O .bss	00000001 __lock___atexit_recursive_mutex
1a001f4e g     F .text	00000024 __sseek
1a0016b8 g     F .text	00000070 __sinit
1a001f7c g     F .text	000000a4 __swbuf_r
1a00017a  w    F .text	00000002 HardFault_Handler
1a00165c g     F .text	0000002c __sfmoreglue
1a000000 g       *ABS*	00000000 __vectors_start__
1a0023fc g     F .text	0000000c __malloc_unlock
1a000564 g     F .text	00000010 SysTick_Handler
1a000300 g     F .text	0000003c new_rotor
1000019d g     O .bss	00000001 __lock___arc4random_mutex
1a000478 g     F .text	000000ec encrypt_char
1a00018a  w    F .text	00000002 SDIO_IRQHandler
1a0011d0 g     F .text	0000001c Board_UARTGetChar
1a00018a  w    F .text	00000002 ATIMER_IRQHandler
1a000186  w    F .text	00000002 PendSV_Handler
1a000178  w    F .text	00000002 NMI_Handler
1a002954 g       .ARM.exidx	00000000 __exidx_end
1a000150 g       .text	00000000 __data_section_table_end
1a00040c g     F .text	0000006c enigma_init
1a00018a  w    F .text	00000002 I2C1_IRQHandler
1a00018a  w    F .text	00000002 UART1_IRQHandler
1a00018a  w    F .text	00000002 GPIO5_IRQHandler
1a00018a  w    F .text	00000002 CAN1_IRQHandler
10000030 g     O .data	00000020 rotor_notches
1a000f7a g     F .text	0000000a _fstat_r
1a002954 g       .ARM.exidx	00000000 _etext
1a00018a  w    F .text	00000002 USB1_IRQHandler
1a00018a  w    F .text	00000002 I2S0_IRQHandler
1a00018a  w    F .text	00000002 TIMER3_IRQHandler
1a000d4a g     F .text	0000000c Chip_Clock_GetBaseClocktHz
1a00018a  w    F .text	00000002 UART0_IRQHandler
1a0001aa g     F .text	00000012 bss_init
1a00018a  w    F .text	00000002 SGPIO_IRQHandler
1a001650 g     F .text	0000000c _cleanup_r
1a001280 g     F .text	00000000 .hidden __aeabi_uldivmod
100001a8 g       .noinit	00000000 _noinit
10000198 g     O .bss	00000004 SystemCoreClock
1a000e34 g     F .text	00000054 Chip_UART_Init
1a00018a  w    F .text	00000002 ADC0_IRQHandler
1a000180  w    F .text	00000002 UsageFault_Handler
1a000d94 g     F .text	0000004c Chip_Clock_GetRate
1a00018a  w    F .text	00000002 GPIO6_IRQHandler
1a001048 g     F .text	0000006c Board_SetupClocking
20008000 g       *ABS*	00000000 __top_RamAHB32
1a0012b0 g     F .text	000002d0 .hidden __udivmoddi4
1a000fc8 g     F .text	00000020 _sbrk_r
1a00279c g     O .text	00000004 ExtRateIn
1a00018a  w    F .text	00000002 IntDefaultHandler
1a000300 g       .text	00000000 __CRP_WORD_END__
1a000fa0 g     F .text	00000028 _read_r
1a00018a  w    F .text	00000002 GPIO1_IRQHandler
1a00018a  w    F .text	00000002 SSP0_IRQHandler
1a00294c g       .text	00000000 __exidx_start
1000019e g     O .bss	00000001 __lock___env_recursive_mutex
1a0002fc g     O .text	00000004 CRP_WORD
1000019f g     O .bss	00000001 __lock___sinit_recursive_mutex
1a002914 g     O .text	00000004 _global_impure_ptr
1a00018a  w    F .text	00000002 ADC1_IRQHandler
1a001258 g     F .text	00000028 Board_Init
10000010 g     O .data	00000020 rotor_ciphers
1a000114 g       .text	00000000 __data_section_table
1a00018a  w    F .text	00000002 RTC_IRQHandler
100001a8 g       .bss	00000000 _ebss
1a00018a  w    F .text	00000002 TIMER0_IRQHandler
20010000 g       *ABS*	00000000 __top_RamAHB_ETB16
1a00018a  w    F .text	00000002 SPI_IRQHandler
1a00018a  w    F .text	00000002 LCD_IRQHandler
1a000a80 g     F .text	0000004c Chip_Clock_EnableCrystal
100001a0 g     O .bss	00000001 __lock___malloc_recursive_mutex
1a001e64 g     F .text	00000090 _putc_r
10008000 g       *ABS*	00000000 __top_RamLoc32
1a00018c g     F .text	0000001e data_init
1a00018a  w    F .text	00000002 TIMER1_IRQHandler
1a0028b4 g     O .text	00000020 __sf_fake_stderr
1a0017f4 g     F .text	00000002 __retarget_lock_release_recursive
1a00018a  w    F .text	00000002 UART2_IRQHandler
1a000c3c g     F .text	0000006c Chip_Clock_GetMainPLLHz
1a0018da g     F .text	00000024 __sfputs_r
1a00018a  w    F .text	00000002 GPIO2_IRQHandler
1a001688 g     F .text	0000000c __sfp_lock_acquire
1a002350 g     F .text	00000000 memchr
1a002408 g     F .text	0000009c _free_r
1a000d24 g     F .text	00000026 Chip_Clock_GetBaseClock
1a00038c g     F .text	00000040 rotor_forward
100000d4 g       .bss	00000000 _bss
1a0006c0 g     F .text	00000014 RotaryEncoder_ButtonPressed
1a00018a  w    F .text	00000002 I2S1_IRQHandler
1a000de0 g     F .text	00000002 Chip_GPIO_Init
1a0027a0 g     O .text	00000004 OscRateIn
100001a8 g       .noinit	00000000 _end_noinit
10008000 g       *ABS*	00000000 _vStackTop
1a00018a  w    F .text	00000002 SSP1_IRQHandler
1a000178 g       .text	00000000 __bss_section_table_end
1a000f70 g     F .text	0000000a _close_r
1a002020 g     F .text	000000dc __swsetup_r
1a001580  w    F .text	00000002 .hidden __aeabi_ldiv0
1a001728 g     F .text	0000008c __sfp
1a0016ac g     F .text	0000000c __sinit_lock_release
1a001ef4 g     F .text	00000022 __sread
1a00018a  w    F .text	00000002 USB0_IRQHandler
1a00018a  w    F .text	00000002 GPIO3_IRQHandler
1a00033c g     F .text	00000014 str_index
1a0023f0 g     F .text	0000000c __malloc_lock
1a0011bc g     F .text	00000014 Board_UARTPutChar
1a00018a  w    F .text	00000002 SCT_IRQHandler
1a002208 g     F .text	00000078 _fflush_r
1a0028d4 g     O .text	00000020 __sf_fake_stdin
1a000ae8 g     F .text	0000001c Chip_Clock_GetDividerDivisor
1a0002fc g       .text	00000000 __CRP_WORD_START__
1a0017f2 g     F .text	00000002 __retarget_lock_acquire_recursive
1a001584 g     F .text	00000010 memset
1a00017c  w    F .text	00000002 MemManage_Handler
1a00058c g     F .text	000000b4 main
1a0017f0 g     F .text	00000002 __retarget_lock_init_recursive
1a00018a  w    F .text	00000002 WDT_IRQHandler
2000c000 g       *ABS*	00000000 __top_RamAHB16
1008a000 g       *ABS*	00000000 __top_RamLoc40
10000004 g     O .data	0000000c reflectors
1a000182  w    F .text	00000002 SVC_Handler
1a001f72 g     F .text	00000008 __sclose
1a001240 g     F .text	00000016 Board_LED_Toggle
1a0017f8 g     F .text	000000b4 _malloc_r
1a00018a  w    F .text	00000002 GPIO7_IRQHandler
1a000d58 g     F .text	0000003c Chip_Clock_EnableOpts
1a000b04 g     F .text	000000b8 Chip_Clock_GetClockInputHz
1a00082c g     F .text	00000054 fpuInit
1a001214 g     F .text	0000002c Board_LED_Test
1a000bbc g     F .text	00000080 Chip_Clock_CalcMainPLLValue
1a000f64 g     F .text	0000000c SystemInit
1a00018a  w    F .text	00000002 SPIFI_IRQHandler
1a000574 g     F .text	00000018 delay
1a00018a  w    F .text	00000002 QEI_IRQHandler
1a000150 g       .text	00000000 __bss_section_table
1a001594 g     F .text	00000030 iprintf
1a001010 g     F .text	00000038 Board_SetupMuxing
1a000e88 g     F .text	000000dc Chip_UART_SetBaudFDR
1a000fe8 g     F .text	00000028 _write_r
1a00018a  w    F .text	00000002 ETH_IRQHandler
1a001b50 g     F .text	000000ea _printf_common
10000070 g     O .data	00000004 _impure_ptr
1a0020fc g     F .text	0000010c __sflush_r
10000000 g       .uninit_RESERVED	00000000 _end_uninit_RESERVED
1a00018a  w    F .text	00000002 CAN0_IRQHandler
10000000 g       .data	00000000 _data
100001a8 g       .bss	00000000 _pvHeapStart
1a000178 g       .text	00000000 __section_table_end
1a00018a  w    F .text	00000002 GINT0_IRQHandler
1a000350 g     F .text	0000003c rotor_cycle
1a002280 g     F .text	00000048 __swhatbuf_r
1a00018a  w    F .text	00000002 DAC_IRQHandler
1a001194 g     F .text	00000028 Board_Debug_Init
100000d4 g       .data	00000000 _edata
10000050 g     O .data	00000020 rotor_turnovers
1a00018a  w    F .text	00000002 M0SUB_IRQHandler
100001a1 g     O .bss	00000001 __lock___at_quick_exit_mutex
1a0006d4 g     F .text	00000158 Chip_SetupCoreClock
1a001f16 g     F .text	00000038 __swrite
1a00018a  w    F .text	00000002 GPIO0_IRQHandler
1a001900 g     F .text	00000250 _vfiprintf_r
1a000000 g     O .text	00000114 g_pfnVectors
1a0010c0 g     F .text	0000007c ResetISR
1a0017b4 g     F .text	0000003c _fwalk_reent
1a000880 g     F .text	00000014 SystemCoreClockUpdate
1a00018a  w    F .text	00000002 DMA_IRQHandler
1a00018a  w    F .text	00000002 EVRT_IRQHandler
1b080000 g       *ABS*	00000000 __top_MFlashB512
1a001694 g     F .text	0000000c __sfp_lock_release
1a0028f4 g     O .text	00000020 __sf_fake_stdout
1a0027b0 g     O .text	00000101 _ctype_
1a001580  w    F .text	00000002 .hidden __aeabi_idiv0
1a0003cc g     F .text	00000040 rotor_reverse
1a00017e  w    F .text	00000002 BusFault_Handler
100001a2 g     O .bss	00000001 __lock___dd_hash_mutex
1a0022c8 g     F .text	00000080 __smakebuf_r
100001a3 g     O .bss	00000001 __lock___tz_mutex
1a001c3c g     F .text	00000228 _printf_i
1a00018a  w    F .text	00000002 UART3_IRQHandler
10000194 g     O .bss	00000004 __malloc_sbrk_start
1a00018a  w    F .text	00000002 MCPWM_IRQHandler
1a0011ec g     F .text	00000028 Board_LED_Set
1a00018a  w    F .text	00000002 M0APP_IRQHandler
1a0015ec g     F .text	0000001a strchr
10000190 g     O .bss	00000004 __malloc_free_list
1a000640 g     F .text	00000044 RotaryEncoder_Init
1a001900 g     F .text	00000250 _vfprintf_r
10000000 g     O .data	00000004 alpha
1a00018a  w    F .text	00000002 GINT1_IRQHandler
1a001180 g     F .text	00000014 Board_UART_Init
1a000ccc g     F .text	00000058 Chip_Clock_SetBaseClock
1a00018a  w    F .text	00000002 GPIO4_IRQHandler
100001a4 g     O .bss	00000001 __lock___sfp_recursive_mutex
1a0016a0 g     F .text	0000000c __sinit_lock_acquire
1a0010b4 g     F .text	0000000c Board_SystemInit



Disassembly of section .text:

1a000000 <g_pfnVectors>:
1a000000:	00 80 00 10 c1 10 00 1a 79 01 00 1a 7b 01 00 1a     ........y...{...
1a000010:	7d 01 00 1a 7f 01 00 1a 81 01 00 1a 00 00 00 00     }...............
	...
1a00002c:	83 01 00 1a 85 01 00 1a 00 00 00 00 87 01 00 1a     ................
1a00003c:	65 05 00 1a 8b 01 00 1a 8b 01 00 1a 8b 01 00 1a     e...............
1a00004c:	00 00 00 00 8b 01 00 1a 8b 01 00 1a 8b 01 00 1a     ................
1a00005c:	8b 01 00 1a 8b 01 00 1a 8b 01 00 1a 8b 01 00 1a     ................
1a00006c:	8b 01 00 1a 8b 01 00 1a 8b 01 00 1a 8b 01 00 1a     ................
1a00007c:	8b 01 00 1a 8b 01 00 1a 8b 01 00 1a 8b 01 00 1a     ................
1a00008c:	8b 01 00 1a 8b 01 00 1a 8b 01 00 1a 8b 01 00 1a     ................
1a00009c:	8b 01 00 1a 8b 01 00 1a 8b 01 00 1a 8b 01 00 1a     ................
1a0000ac:	8b 01 00 1a 8b 01 00 1a 8b 01 00 1a 8b 01 00 1a     ................
1a0000bc:	8b 01 00 1a 8b 01 00 1a 8b 01 00 1a 8b 01 00 1a     ................
1a0000cc:	8b 01 00 1a 8b 01 00 1a 8b 01 00 1a 8b 01 00 1a     ................
1a0000dc:	8b 01 00 1a 8b 01 00 1a 8b 01 00 1a 8b 01 00 1a     ................
1a0000ec:	8b 01 00 1a 00 00 00 00 8b 01 00 1a 8b 01 00 1a     ................
1a0000fc:	8b 01 00 1a 00 00 00 00 8b 01 00 1a 8b 01 00 1a     ................
1a00010c:	8b 01 00 1a 8b 01 00 1a                             ........

1a000114 <__data_section_table>:
1a000114:	1a002954 	.word	0x1a002954
1a000118:	10000000 	.word	0x10000000
1a00011c:	000000d4 	.word	0x000000d4
1a000120:	1a002954 	.word	0x1a002954
1a000124:	10080000 	.word	0x10080000
1a000128:	00000000 	.word	0x00000000
1a00012c:	1a002954 	.word	0x1a002954
1a000130:	20000000 	.word	0x20000000
1a000134:	00000000 	.word	0x00000000
1a000138:	1a002954 	.word	0x1a002954
1a00013c:	20008000 	.word	0x20008000
1a000140:	00000000 	.word	0x00000000
1a000144:	1a002954 	.word	0x1a002954
1a000148:	2000c000 	.word	0x2000c000
1a00014c:	00000000 	.word	0x00000000

1a000150 <__bss_section_table>:
1a000150:	100000d4 	.word	0x100000d4
1a000154:	000000d4 	.word	0x000000d4
1a000158:	10080000 	.word	0x10080000
1a00015c:	00000000 	.word	0x00000000
1a000160:	20000000 	.word	0x20000000
1a000164:	00000000 	.word	0x00000000
1a000168:	20008000 	.word	0x20008000
1a00016c:	00000000 	.word	0x00000000
1a000170:	2000c000 	.word	0x2000c000
1a000174:	00000000 	.word	0x00000000

1a000178 <NMI_Handler>:
1a000178:	e7fe      	b.n	1a000178 <NMI_Handler>

1a00017a <HardFault_Handler>:
1a00017a:	e7fe      	b.n	1a00017a <HardFault_Handler>

1a00017c <MemManage_Handler>:
1a00017c:	e7fe      	b.n	1a00017c <MemManage_Handler>

1a00017e <BusFault_Handler>:
1a00017e:	e7fe      	b.n	1a00017e <BusFault_Handler>

1a000180 <UsageFault_Handler>:
1a000180:	e7fe      	b.n	1a000180 <UsageFault_Handler>

1a000182 <SVC_Handler>:
1a000182:	e7fe      	b.n	1a000182 <SVC_Handler>

1a000184 <DebugMon_Handler>:
1a000184:	e7fe      	b.n	1a000184 <DebugMon_Handler>

1a000186 <PendSV_Handler>:
1a000186:	e7fe      	b.n	1a000186 <PendSV_Handler>
1a000188:	e7fe      	b.n	1a000188 <PendSV_Handler+0x2>

1a00018a <ADC0_IRQHandler>:
1a00018a:	e7fe      	b.n	1a00018a <ADC0_IRQHandler>

1a00018c <data_init>:
1a00018c:	2300      	movs	r3, #0
1a00018e:	4293      	cmp	r3, r2
1a000190:	d20a      	bcs.n	1a0001a8 <data_init+0x1c>
1a000192:	b410      	push	{r4}
1a000194:	f850 4b04 	ldr.w	r4, [r0], #4
1a000198:	f841 4b04 	str.w	r4, [r1], #4
1a00019c:	3304      	adds	r3, #4
1a00019e:	4293      	cmp	r3, r2
1a0001a0:	d3f8      	bcc.n	1a000194 <data_init+0x8>
1a0001a2:	f85d 4b04 	ldr.w	r4, [sp], #4
1a0001a6:	4770      	bx	lr
1a0001a8:	4770      	bx	lr

1a0001aa <bss_init>:
1a0001aa:	2300      	movs	r3, #0
1a0001ac:	428b      	cmp	r3, r1
1a0001ae:	d204      	bcs.n	1a0001ba <bss_init+0x10>
1a0001b0:	2200      	movs	r2, #0
1a0001b2:	f840 2b04 	str.w	r2, [r0], #4
1a0001b6:	3304      	adds	r3, #4
1a0001b8:	e7f8      	b.n	1a0001ac <bss_init+0x2>
1a0001ba:	4770      	bx	lr
1a0001bc:	ffff ffff 			; <UNDEFINED> instruction: 0xffffffff
1a0001c0:	ffff ffff 			; <UNDEFINED> instruction: 0xffffffff
1a0001c4:	ffff ffff 			; <UNDEFINED> instruction: 0xffffffff
1a0001c8:	ffff ffff 			; <UNDEFINED> instruction: 0xffffffff
1a0001cc:	ffff ffff 			; <UNDEFINED> instruction: 0xffffffff
1a0001d0:	ffff ffff 			; <UNDEFINED> instruction: 0xffffffff
1a0001d4:	ffff ffff 			; <UNDEFINED> instruction: 0xffffffff
1a0001d8:	ffff ffff 			; <UNDEFINED> instruction: 0xffffffff
1a0001dc:	ffff ffff 			; <UNDEFINED> instruction: 0xffffffff
1a0001e0:	ffff ffff 			; <UNDEFINED> instruction: 0xffffffff
1a0001e4:	ffff ffff 			; <UNDEFINED> instruction: 0xffffffff
1a0001e8:	ffff ffff 			; <UNDEFINED> instruction: 0xffffffff
1a0001ec:	ffff ffff 			; <UNDEFINED> instruction: 0xffffffff
1a0001f0:	ffff ffff 			; <UNDEFINED> instruction: 0xffffffff
1a0001f4:	ffff ffff 			; <UNDEFINED> instruction: 0xffffffff
1a0001f8:	ffff ffff 			; <UNDEFINED> instruction: 0xffffffff
1a0001fc:	ffff ffff 			; <UNDEFINED> instruction: 0xffffffff
1a000200:	ffff ffff 			; <UNDEFINED> instruction: 0xffffffff
1a000204:	ffff ffff 			; <UNDEFINED> instruction: 0xffffffff
1a000208:	ffff ffff 			; <UNDEFINED> instruction: 0xffffffff
1a00020c:	ffff ffff 			; <UNDEFINED> instruction: 0xffffffff
1a000210:	ffff ffff 			; <UNDEFINED> instruction: 0xffffffff
1a000214:	ffff ffff 			; <UNDEFINED> instruction: 0xffffffff
1a000218:	ffff ffff 			; <UNDEFINED> instruction: 0xffffffff
1a00021c:	ffff ffff 			; <UNDEFINED> instruction: 0xffffffff
1a000220:	ffff ffff 			; <UNDEFINED> instruction: 0xffffffff
1a000224:	ffff ffff 			; <UNDEFINED> instruction: 0xffffffff
1a000228:	ffff ffff 			; <UNDEFINED> instruction: 0xffffffff
1a00022c:	ffff ffff 			; <UNDEFINED> instruction: 0xffffffff
1a000230:	ffff ffff 			; <UNDEFINED> instruction: 0xffffffff
1a000234:	ffff ffff 			; <UNDEFINED> instruction: 0xffffffff
1a000238:	ffff ffff 			; <UNDEFINED> instruction: 0xffffffff
1a00023c:	ffff ffff 			; <UNDEFINED> instruction: 0xffffffff
1a000240:	ffff ffff 			; <UNDEFINED> instruction: 0xffffffff
1a000244:	ffff ffff 			; <UNDEFINED> instruction: 0xffffffff
1a000248:	ffff ffff 			; <UNDEFINED> instruction: 0xffffffff
1a00024c:	ffff ffff 			; <UNDEFINED> instruction: 0xffffffff
1a000250:	ffff ffff 			; <UNDEFINED> instruction: 0xffffffff
1a000254:	ffff ffff 			; <UNDEFINED> instruction: 0xffffffff
1a000258:	ffff ffff 			; <UNDEFINED> instruction: 0xffffffff
1a00025c:	ffff ffff 			; <UNDEFINED> instruction: 0xffffffff
1a000260:	ffff ffff 			; <UNDEFINED> instruction: 0xffffffff
1a000264:	ffff ffff 			; <UNDEFINED> instruction: 0xffffffff
1a000268:	ffff ffff 			; <UNDEFINED> instruction: 0xffffffff
1a00026c:	ffff ffff 			; <UNDEFINED> instruction: 0xffffffff
1a000270:	ffff ffff 			; <UNDEFINED> instruction: 0xffffffff
1a000274:	ffff ffff 			; <UNDEFINED> instruction: 0xffffffff
1a000278:	ffff ffff 			; <UNDEFINED> instruction: 0xffffffff
1a00027c:	ffff ffff 			; <UNDEFINED> instruction: 0xffffffff
1a000280:	ffff ffff 			; <UNDEFINED> instruction: 0xffffffff
1a000284:	ffff ffff 			; <UNDEFINED> instruction: 0xffffffff
1a000288:	ffff ffff 			; <UNDEFINED> instruction: 0xffffffff
1a00028c:	ffff ffff 			; <UNDEFINED> instruction: 0xffffffff
1a000290:	ffff ffff 			; <UNDEFINED> instruction: 0xffffffff
1a000294:	ffff ffff 			; <UNDEFINED> instruction: 0xffffffff
1a000298:	ffff ffff 			; <UNDEFINED> instruction: 0xffffffff
1a00029c:	ffff ffff 			; <UNDEFINED> instruction: 0xffffffff
1a0002a0:	ffff ffff 			; <UNDEFINED> instruction: 0xffffffff
1a0002a4:	ffff ffff 			; <UNDEFINED> instruction: 0xffffffff
1a0002a8:	ffff ffff 			; <UNDEFINED> instruction: 0xffffffff
1a0002ac:	ffff ffff 			; <UNDEFINED> instruction: 0xffffffff
1a0002b0:	ffff ffff 			; <UNDEFINED> instruction: 0xffffffff
1a0002b4:	ffff ffff 			; <UNDEFINED> instruction: 0xffffffff
1a0002b8:	ffff ffff 			; <UNDEFINED> instruction: 0xffffffff
1a0002bc:	ffff ffff 			; <UNDEFINED> instruction: 0xffffffff
1a0002c0:	ffff ffff 			; <UNDEFINED> instruction: 0xffffffff
1a0002c4:	ffff ffff 			; <UNDEFINED> instruction: 0xffffffff
1a0002c8:	ffff ffff 			; <UNDEFINED> instruction: 0xffffffff
1a0002cc:	ffff ffff 			; <UNDEFINED> instruction: 0xffffffff
1a0002d0:	ffff ffff 			; <UNDEFINED> instruction: 0xffffffff
1a0002d4:	ffff ffff 			; <UNDEFINED> instruction: 0xffffffff
1a0002d8:	ffff ffff 			; <UNDEFINED> instruction: 0xffffffff
1a0002dc:	ffff ffff 			; <UNDEFINED> instruction: 0xffffffff
1a0002e0:	ffff ffff 			; <UNDEFINED> instruction: 0xffffffff
1a0002e4:	ffff ffff 			; <UNDEFINED> instruction: 0xffffffff
1a0002e8:	ffff ffff 			; <UNDEFINED> instruction: 0xffffffff
1a0002ec:	ffff ffff 			; <UNDEFINED> instruction: 0xffffffff
1a0002f0:	ffff ffff 			; <UNDEFINED> instruction: 0xffffffff
1a0002f4:	ffff ffff 			; <UNDEFINED> instruction: 0xffffffff
1a0002f8:	ffff ffff 			; <UNDEFINED> instruction: 0xffffffff

1a0002fc <CRP_WORD>:
1a0002fc:	ffff ffff                                   ....

1a000300 <new_rotor>:
1a000300:	b410      	push	{r4}
1a000302:	6003      	str	r3, [r0, #0]
1a000304:	2300      	movs	r3, #0
1a000306:	6043      	str	r3, [r0, #4]
1a000308:	3a01      	subs	r2, #1
1a00030a:	4b09      	ldr	r3, [pc, #36]	; (1a000330 <new_rotor+0x30>)
1a00030c:	f853 3022 	ldr.w	r3, [r3, r2, lsl #2]
1a000310:	6083      	str	r3, [r0, #8]
1a000312:	4b08      	ldr	r3, [pc, #32]	; (1a000334 <new_rotor+0x34>)
1a000314:	f853 3022 	ldr.w	r3, [r3, r2, lsl #2]
1a000318:	60c3      	str	r3, [r0, #12]
1a00031a:	4b07      	ldr	r3, [pc, #28]	; (1a000338 <new_rotor+0x38>)
1a00031c:	f853 3022 	ldr.w	r3, [r3, r2, lsl #2]
1a000320:	6103      	str	r3, [r0, #16]
1a000322:	680b      	ldr	r3, [r1, #0]
1a000324:	3301      	adds	r3, #1
1a000326:	600b      	str	r3, [r1, #0]
1a000328:	f85d 4b04 	ldr.w	r4, [sp], #4
1a00032c:	4770      	bx	lr
1a00032e:	bf00      	nop
1a000330:	10000010 	.word	0x10000010
1a000334:	10000050 	.word	0x10000050
1a000338:	10000030 	.word	0x10000030

1a00033c <str_index>:
1a00033c:	b510      	push	{r4, lr}
1a00033e:	4604      	mov	r4, r0
1a000340:	f001 f954 	bl	1a0015ec <strchr>
1a000344:	b108      	cbz	r0, 1a00034a <str_index+0xe>
1a000346:	1b00      	subs	r0, r0, r4
1a000348:	bd10      	pop	{r4, pc}
1a00034a:	f04f 30ff 	mov.w	r0, #4294967295
1a00034e:	e7fb      	b.n	1a000348 <str_index+0xc>

1a000350 <rotor_cycle>:
1a000350:	b510      	push	{r4, lr}
1a000352:	4604      	mov	r4, r0
1a000354:	6802      	ldr	r2, [r0, #0]
1a000356:	3201      	adds	r2, #1
1a000358:	490a      	ldr	r1, [pc, #40]	; (1a000384 <rotor_cycle+0x34>)
1a00035a:	fb81 3102 	smull	r3, r1, r1, r2
1a00035e:	17d3      	asrs	r3, r2, #31
1a000360:	ebc3 03e1 	rsb	r3, r3, r1, asr #3
1a000364:	211a      	movs	r1, #26
1a000366:	fb01 2313 	mls	r3, r1, r3, r2
1a00036a:	6003      	str	r3, [r0, #0]
1a00036c:	4a06      	ldr	r2, [pc, #24]	; (1a000388 <rotor_cycle+0x38>)
1a00036e:	6812      	ldr	r2, [r2, #0]
1a000370:	5cd1      	ldrb	r1, [r2, r3]
1a000372:	68c0      	ldr	r0, [r0, #12]
1a000374:	f7ff ffe2 	bl	1a00033c <str_index>
1a000378:	2800      	cmp	r0, #0
1a00037a:	db01      	blt.n	1a000380 <rotor_cycle+0x30>
1a00037c:	2301      	movs	r3, #1
1a00037e:	6063      	str	r3, [r4, #4]
1a000380:	bd10      	pop	{r4, pc}
1a000382:	bf00      	nop
1a000384:	4ec4ec4f 	.word	0x4ec4ec4f
1a000388:	10000000 	.word	0x10000000

1a00038c <rotor_forward>:
1a00038c:	b570      	push	{r4, r5, r6, lr}
1a00038e:	6806      	ldr	r6, [r0, #0]
1a000390:	4431      	add	r1, r6
1a000392:	4c0c      	ldr	r4, [pc, #48]	; (1a0003c4 <rotor_forward+0x38>)
1a000394:	fb84 3201 	smull	r3, r2, r4, r1
1a000398:	17cb      	asrs	r3, r1, #31
1a00039a:	ebc3 03e2 	rsb	r3, r3, r2, asr #3
1a00039e:	251a      	movs	r5, #26
1a0003a0:	fb05 1313 	mls	r3, r5, r3, r1
1a0003a4:	6882      	ldr	r2, [r0, #8]
1a0003a6:	5cd1      	ldrb	r1, [r2, r3]
1a0003a8:	4b07      	ldr	r3, [pc, #28]	; (1a0003c8 <rotor_forward+0x3c>)
1a0003aa:	6818      	ldr	r0, [r3, #0]
1a0003ac:	f7ff ffc6 	bl	1a00033c <str_index>
1a0003b0:	4428      	add	r0, r5
1a0003b2:	1b80      	subs	r0, r0, r6
1a0003b4:	fb84 3400 	smull	r3, r4, r4, r0
1a0003b8:	17c3      	asrs	r3, r0, #31
1a0003ba:	ebc3 04e4 	rsb	r4, r3, r4, asr #3
1a0003be:	fb05 0014 	mls	r0, r5, r4, r0
1a0003c2:	bd70      	pop	{r4, r5, r6, pc}
1a0003c4:	4ec4ec4f 	.word	0x4ec4ec4f
1a0003c8:	10000000 	.word	0x10000000

1a0003cc <rotor_reverse>:
1a0003cc:	b570      	push	{r4, r5, r6, lr}
1a0003ce:	6806      	ldr	r6, [r0, #0]
1a0003d0:	4431      	add	r1, r6
1a0003d2:	4c0c      	ldr	r4, [pc, #48]	; (1a000404 <rotor_reverse+0x38>)
1a0003d4:	fb84 3201 	smull	r3, r2, r4, r1
1a0003d8:	17cb      	asrs	r3, r1, #31
1a0003da:	ebc3 03e2 	rsb	r3, r3, r2, asr #3
1a0003de:	251a      	movs	r5, #26
1a0003e0:	fb05 1313 	mls	r3, r5, r3, r1
1a0003e4:	4a08      	ldr	r2, [pc, #32]	; (1a000408 <rotor_reverse+0x3c>)
1a0003e6:	6812      	ldr	r2, [r2, #0]
1a0003e8:	5cd1      	ldrb	r1, [r2, r3]
1a0003ea:	6880      	ldr	r0, [r0, #8]
1a0003ec:	f7ff ffa6 	bl	1a00033c <str_index>
1a0003f0:	4428      	add	r0, r5
1a0003f2:	1b80      	subs	r0, r0, r6
1a0003f4:	fb84 3400 	smull	r3, r4, r4, r0
1a0003f8:	17c3      	asrs	r3, r0, #31
1a0003fa:	ebc3 04e4 	rsb	r4, r3, r4, asr #3
1a0003fe:	fb05 0014 	mls	r0, r5, r4, r0
1a000402:	bd70      	pop	{r4, r5, r6, pc}
1a000404:	4ec4ec4f 	.word	0x4ec4ec4f
1a000408:	10000000 	.word	0x10000000

1a00040c <enigma_init>:
1a00040c:	e92d 41f0 	stmdb	sp!, {r4, r5, r6, r7, r8, lr}
1a000410:	b086      	sub	sp, #24
1a000412:	4688      	mov	r8, r1
1a000414:	4617      	mov	r7, r2
1a000416:	4a16      	ldr	r2, [pc, #88]	; (1a000470 <enigma_init+0x64>)
1a000418:	6852      	ldr	r2, [r2, #4]
1a00041a:	4c16      	ldr	r4, [pc, #88]	; (1a000474 <enigma_init+0x68>)
1a00041c:	6062      	str	r2, [r4, #4]
1a00041e:	4602      	mov	r2, r0
1a000420:	4621      	mov	r1, r4
1a000422:	4668      	mov	r0, sp
1a000424:	f7ff ff6c 	bl	1a000300 <new_rotor>
1a000428:	f104 0508 	add.w	r5, r4, #8
1a00042c:	466e      	mov	r6, sp
1a00042e:	ce0f      	ldmia	r6!, {r0, r1, r2, r3}
1a000430:	c50f      	stmia	r5!, {r0, r1, r2, r3}
1a000432:	6833      	ldr	r3, [r6, #0]
1a000434:	602b      	str	r3, [r5, #0]
1a000436:	9b0c      	ldr	r3, [sp, #48]	; 0x30
1a000438:	4642      	mov	r2, r8
1a00043a:	4621      	mov	r1, r4
1a00043c:	4668      	mov	r0, sp
1a00043e:	f7ff ff5f 	bl	1a000300 <new_rotor>
1a000442:	f104 051c 	add.w	r5, r4, #28
1a000446:	466e      	mov	r6, sp
1a000448:	ce0f      	ldmia	r6!, {r0, r1, r2, r3}
1a00044a:	c50f      	stmia	r5!, {r0, r1, r2, r3}
1a00044c:	6833      	ldr	r3, [r6, #0]
1a00044e:	602b      	str	r3, [r5, #0]
1a000450:	9b0d      	ldr	r3, [sp, #52]	; 0x34
1a000452:	463a      	mov	r2, r7
1a000454:	4621      	mov	r1, r4
1a000456:	4668      	mov	r0, sp
1a000458:	f7ff ff52 	bl	1a000300 <new_rotor>
1a00045c:	3430      	adds	r4, #48	; 0x30
1a00045e:	466d      	mov	r5, sp
1a000460:	cd0f      	ldmia	r5!, {r0, r1, r2, r3}
1a000462:	c40f      	stmia	r4!, {r0, r1, r2, r3}
1a000464:	682b      	ldr	r3, [r5, #0]
1a000466:	6023      	str	r3, [r4, #0]
1a000468:	b006      	add	sp, #24
1a00046a:	e8bd 81f0 	ldmia.w	sp!, {r4, r5, r6, r7, r8, pc}
1a00046e:	bf00      	nop
1a000470:	10000004 	.word	0x10000004
1a000474:	100000d4 	.word	0x100000d4

1a000478 <encrypt_char>:
1a000478:	b5f8      	push	{r3, r4, r5, r6, r7, lr}
1a00047a:	4604      	mov	r4, r0
1a00047c:	1c46      	adds	r6, r0, #1
1a00047e:	4d36      	ldr	r5, [pc, #216]	; (1a000558 <encrypt_char+0xe0>)
1a000480:	5d73      	ldrb	r3, [r6, r5]
1a000482:	f013 0f03 	tst.w	r3, #3
1a000486:	d019      	beq.n	1a0004bc <encrypt_char+0x44>
1a000488:	5d73      	ldrb	r3, [r6, r5]
1a00048a:	f003 0303 	and.w	r3, r3, #3
1a00048e:	2b02      	cmp	r3, #2
1a000490:	d017      	beq.n	1a0004c2 <encrypt_char+0x4a>
1a000492:	4d32      	ldr	r5, [pc, #200]	; (1a00055c <encrypt_char+0xe4>)
1a000494:	b2e1      	uxtb	r1, r4
1a000496:	6828      	ldr	r0, [r5, #0]
1a000498:	f7ff ff50 	bl	1a00033c <str_index>
1a00049c:	4606      	mov	r6, r0
1a00049e:	4c30      	ldr	r4, [pc, #192]	; (1a000560 <encrypt_char+0xe8>)
1a0004a0:	f104 0008 	add.w	r0, r4, #8
1a0004a4:	f7ff ff54 	bl	1a000350 <rotor_cycle>
1a0004a8:	69e3      	ldr	r3, [r4, #28]
1a0004aa:	682a      	ldr	r2, [r5, #0]
1a0004ac:	5cd1      	ldrb	r1, [r2, r3]
1a0004ae:	6ae0      	ldr	r0, [r4, #44]	; 0x2c
1a0004b0:	f7ff ff44 	bl	1a00033c <str_index>
1a0004b4:	2800      	cmp	r0, #0
1a0004b6:	da06      	bge.n	1a0004c6 <encrypt_char+0x4e>
1a0004b8:	2500      	movs	r5, #0
1a0004ba:	e019      	b.n	1a0004f0 <encrypt_char+0x78>
1a0004bc:	f001 f882 	bl	1a0015c4 <putchar>
1a0004c0:	e7e2      	b.n	1a000488 <encrypt_char+0x10>
1a0004c2:	3c20      	subs	r4, #32
1a0004c4:	e7e5      	b.n	1a000492 <encrypt_char+0x1a>
1a0004c6:	f104 001c 	add.w	r0, r4, #28
1a0004ca:	f7ff ff41 	bl	1a000350 <rotor_cycle>
1a0004ce:	e7f3      	b.n	1a0004b8 <encrypt_char+0x40>
1a0004d0:	4823      	ldr	r0, [pc, #140]	; (1a000560 <encrypt_char+0xe8>)
1a0004d2:	eb05 0285 	add.w	r2, r5, r5, lsl #2
1a0004d6:	0093      	lsls	r3, r2, #2
1a0004d8:	4403      	add	r3, r0
1a0004da:	2200      	movs	r2, #0
1a0004dc:	60da      	str	r2, [r3, #12]
1a0004de:	1c6b      	adds	r3, r5, #1
1a0004e0:	eb03 0383 	add.w	r3, r3, r3, lsl #2
1a0004e4:	009a      	lsls	r2, r3, #2
1a0004e6:	3208      	adds	r2, #8
1a0004e8:	4410      	add	r0, r2
1a0004ea:	f7ff ff31 	bl	1a000350 <rotor_cycle>
1a0004ee:	3501      	adds	r5, #1
1a0004f0:	4b1b      	ldr	r3, [pc, #108]	; (1a000560 <encrypt_char+0xe8>)
1a0004f2:	681f      	ldr	r7, [r3, #0]
1a0004f4:	1e7c      	subs	r4, r7, #1
1a0004f6:	42ac      	cmp	r4, r5
1a0004f8:	dd08      	ble.n	1a00050c <encrypt_char+0x94>
1a0004fa:	eb05 0385 	add.w	r3, r5, r5, lsl #2
1a0004fe:	009a      	lsls	r2, r3, #2
1a000500:	4b17      	ldr	r3, [pc, #92]	; (1a000560 <encrypt_char+0xe8>)
1a000502:	4413      	add	r3, r2
1a000504:	68db      	ldr	r3, [r3, #12]
1a000506:	2b00      	cmp	r3, #0
1a000508:	d0f1      	beq.n	1a0004ee <encrypt_char+0x76>
1a00050a:	e7e1      	b.n	1a0004d0 <encrypt_char+0x58>
1a00050c:	2500      	movs	r5, #0
1a00050e:	e00a      	b.n	1a000526 <encrypt_char+0xae>
1a000510:	eb05 0385 	add.w	r3, r5, r5, lsl #2
1a000514:	0098      	lsls	r0, r3, #2
1a000516:	3008      	adds	r0, #8
1a000518:	4631      	mov	r1, r6
1a00051a:	4b11      	ldr	r3, [pc, #68]	; (1a000560 <encrypt_char+0xe8>)
1a00051c:	4418      	add	r0, r3
1a00051e:	f7ff ff35 	bl	1a00038c <rotor_forward>
1a000522:	4606      	mov	r6, r0
1a000524:	3501      	adds	r5, #1
1a000526:	42af      	cmp	r7, r5
1a000528:	dcf2      	bgt.n	1a000510 <encrypt_char+0x98>
1a00052a:	4b0d      	ldr	r3, [pc, #52]	; (1a000560 <encrypt_char+0xe8>)
1a00052c:	685b      	ldr	r3, [r3, #4]
1a00052e:	4a0b      	ldr	r2, [pc, #44]	; (1a00055c <encrypt_char+0xe4>)
1a000530:	6815      	ldr	r5, [r2, #0]
1a000532:	5d99      	ldrb	r1, [r3, r6]
1a000534:	4628      	mov	r0, r5
1a000536:	f7ff ff01 	bl	1a00033c <str_index>
1a00053a:	2c00      	cmp	r4, #0
1a00053c:	db0a      	blt.n	1a000554 <encrypt_char+0xdc>
1a00053e:	eb04 0284 	add.w	r2, r4, r4, lsl #2
1a000542:	0093      	lsls	r3, r2, #2
1a000544:	3308      	adds	r3, #8
1a000546:	4601      	mov	r1, r0
1a000548:	4805      	ldr	r0, [pc, #20]	; (1a000560 <encrypt_char+0xe8>)
1a00054a:	4418      	add	r0, r3
1a00054c:	f7ff ff3e 	bl	1a0003cc <rotor_reverse>
1a000550:	3c01      	subs	r4, #1
1a000552:	e7f2      	b.n	1a00053a <encrypt_char+0xc2>
1a000554:	5c28      	ldrb	r0, [r5, r0]
1a000556:	bdf8      	pop	{r3, r4, r5, r6, r7, pc}
1a000558:	1a0027b0 	.word	0x1a0027b0
1a00055c:	10000000 	.word	0x10000000
1a000560:	100000d4 	.word	0x100000d4

1a000564 <SysTick_Handler>:
#include "rotor.h"

static volatile uint32_t tick_ct = 0;

void SysTick_Handler(void) {
   tick_ct++;
1a000564:	4a02      	ldr	r2, [pc, #8]	; (1a000570 <SysTick_Handler+0xc>)
1a000566:	6813      	ldr	r3, [r2, #0]
1a000568:	3301      	adds	r3, #1
1a00056a:	6013      	str	r3, [r2, #0]
}
1a00056c:	4770      	bx	lr
1a00056e:	bf00      	nop
1a000570:	1000017c 	.word	0x1000017c

1a000574 <delay>:

void delay(uint32_t tk) {
   uint32_t end = tick_ct + tk;
1a000574:	4b04      	ldr	r3, [pc, #16]	; (1a000588 <delay+0x14>)
1a000576:	681b      	ldr	r3, [r3, #0]
1a000578:	4418      	add	r0, r3
   while(tick_ct < end)
1a00057a:	4b03      	ldr	r3, [pc, #12]	; (1a000588 <delay+0x14>)
1a00057c:	681b      	ldr	r3, [r3, #0]
1a00057e:	4283      	cmp	r3, r0
1a000580:	d201      	bcs.n	1a000586 <delay+0x12>
    Wait For Interrupt is a hint instruction that suspends execution
    until one of a number of events occurs.
 */
__attribute__( ( always_inline ) ) __STATIC_INLINE void __WFI(void)
{
  __ASM volatile ("wfi");
1a000582:	bf30      	wfi
1a000584:	e7f9      	b.n	1a00057a <delay+0x6>
       __WFI();
}
1a000586:	4770      	bx	lr
1a000588:	1000017c 	.word	0x1000017c

1a00058c <main>:

int main(void) {
1a00058c:	b530      	push	{r4, r5, lr}
1a00058e:	b083      	sub	sp, #12
   SystemCoreClockUpdate();
1a000590:	f000 f976 	bl	1a000880 <SystemCoreClockUpdate>
   Board_Init();
1a000594:	f000 fe60 	bl	1a001258 <Board_Init>
   
   SysTick_Config(SystemCoreClock / TICKRATE_HZ);
1a000598:	4b21      	ldr	r3, [pc, #132]	; (1a000620 <main+0x94>)
1a00059a:	681b      	ldr	r3, [r3, #0]
1a00059c:	4a21      	ldr	r2, [pc, #132]	; (1a000624 <main+0x98>)
1a00059e:	fba2 2303 	umull	r2, r3, r2, r3
1a0005a2:	099b      	lsrs	r3, r3, #6
    must contain a vendor-specific implementation of this function.

 */
__STATIC_INLINE uint32_t SysTick_Config(uint32_t ticks)
{
  if ((ticks - 1) > SysTick_LOAD_RELOAD_Msk)  return (1);      /* Reload value impossible */
1a0005a4:	3b01      	subs	r3, #1
1a0005a6:	f1b3 7f80 	cmp.w	r3, #16777216	; 0x1000000
1a0005aa:	d209      	bcs.n	1a0005c0 <main+0x34>

  SysTick->LOAD  = ticks - 1;                                  /* set reload register */
1a0005ac:	4a1e      	ldr	r2, [pc, #120]	; (1a000628 <main+0x9c>)
1a0005ae:	6053      	str	r3, [r2, #4]
    SCB->SHP[((uint32_t)(IRQn) & 0xF)-4] = ((priority << (8 - __NVIC_PRIO_BITS)) & 0xff); } /* set Priority for Cortex-M  System Interrupts */
1a0005b0:	4b1e      	ldr	r3, [pc, #120]	; (1a00062c <main+0xa0>)
1a0005b2:	21e0      	movs	r1, #224	; 0xe0
1a0005b4:	f883 1023 	strb.w	r1, [r3, #35]	; 0x23
  NVIC_SetPriority (SysTick_IRQn, (1<<__NVIC_PRIO_BITS) - 1);  /* set Priority for Systick Interrupt */
  SysTick->VAL   = 0;                                          /* Load the SysTick Counter Value */
1a0005b8:	2300      	movs	r3, #0
1a0005ba:	6093      	str	r3, [r2, #8]
  SysTick->CTRL  = SysTick_CTRL_CLKSOURCE_Msk |
1a0005bc:	2307      	movs	r3, #7
1a0005be:	6013      	str	r3, [r2, #0]
   enigma_init(3,2,1,0,0,0);
1a0005c0:	2300      	movs	r3, #0
1a0005c2:	9301      	str	r3, [sp, #4]
1a0005c4:	9300      	str	r3, [sp, #0]
1a0005c6:	2201      	movs	r2, #1
1a0005c8:	2102      	movs	r1, #2
1a0005ca:	2003      	movs	r0, #3
1a0005cc:	f7ff ff1e 	bl	1a00040c <enigma_init>
   char out = encrypt_char('a');
1a0005d0:	2061      	movs	r0, #97	; 0x61
1a0005d2:	f7ff ff51 	bl	1a000478 <encrypt_char>
1a0005d6:	4605      	mov	r5, r0
   
   RotaryEncoder_Init();
1a0005d8:	f000 f832 	bl	1a000640 <RotaryEncoder_Init>
   int rotor = 20;
1a0005dc:	2414      	movs	r4, #20
1a0005de:	e00c      	b.n	1a0005fa <main+0x6e>
       Board_LED_Toggle(LED_2);
       delay(50);
       EncoderState_t state = RotaryEncoder_Read();
        if (state == ENCODER_CLOCKWISE) {
            // Acción para el giro en sentido horario
           rotor++;
1a0005e0:	3401      	adds	r4, #1
        } else if (state == ENCODER_COUNTERCLOCKWISE) {
            // Acción para el giro en sentido antihorario
            rotor--;
        }
      
      printf("Hola mundo at %d\r\n", tick_ct);
1a0005e2:	4b13      	ldr	r3, [pc, #76]	; (1a000630 <main+0xa4>)
1a0005e4:	6819      	ldr	r1, [r3, #0]
1a0005e6:	4813      	ldr	r0, [pc, #76]	; (1a000634 <main+0xa8>)
1a0005e8:	f000 ffd4 	bl	1a001594 <iprintf>
      printf("Direccion: %d\n",rotor);
1a0005ec:	4621      	mov	r1, r4
1a0005ee:	4812      	ldr	r0, [pc, #72]	; (1a000638 <main+0xac>)
1a0005f0:	f000 ffd0 	bl	1a001594 <iprintf>

      if (RotaryEncoder_ButtonPressed()) {
1a0005f4:	f000 f864 	bl	1a0006c0 <RotaryEncoder_ButtonPressed>
1a0005f8:	b968      	cbnz	r0, 1a000616 <main+0x8a>
       Board_LED_Toggle(LED_2);
1a0005fa:	2001      	movs	r0, #1
1a0005fc:	f000 fe20 	bl	1a001240 <Board_LED_Toggle>
       delay(50);
1a000600:	2032      	movs	r0, #50	; 0x32
1a000602:	f7ff ffb7 	bl	1a000574 <delay>
       EncoderState_t state = RotaryEncoder_Read();
1a000606:	f000 f83d 	bl	1a000684 <RotaryEncoder_Read>
        if (state == ENCODER_CLOCKWISE) {
1a00060a:	2801      	cmp	r0, #1
1a00060c:	d0e8      	beq.n	1a0005e0 <main+0x54>
        } else if (state == ENCODER_COUNTERCLOCKWISE) {
1a00060e:	2802      	cmp	r0, #2
1a000610:	d1e7      	bne.n	1a0005e2 <main+0x56>
            rotor--;
1a000612:	3c01      	subs	r4, #1
1a000614:	e7e5      	b.n	1a0005e2 <main+0x56>
            // Acción cuando se presiona el botón
      
            printf("Letra encriptada: %c\n",out);
1a000616:	4629      	mov	r1, r5
1a000618:	4808      	ldr	r0, [pc, #32]	; (1a00063c <main+0xb0>)
1a00061a:	f000 ffbb 	bl	1a001594 <iprintf>
1a00061e:	e7ec      	b.n	1a0005fa <main+0x6e>
1a000620:	10000198 	.word	0x10000198
1a000624:	10624dd3 	.word	0x10624dd3
1a000628:	e000e010 	.word	0xe000e010
1a00062c:	e000ed00 	.word	0xe000ed00
1a000630:	1000017c 	.word	0x1000017c
1a000634:	1a002624 	.word	0x1a002624
1a000638:	1a002638 	.word	0x1a002638
1a00063c:	1a002648 	.word	0x1a002648

1a000640 <RotaryEncoder_Init>:
#include "board.h"

#include "rotor.h"

// Inicialización del Rotary Encoder
void RotaryEncoder_Init(void) {
1a000640:	b570      	push	{r4, r5, r6, lr}
 * @note   Do not use for clock pins (SFSCLK0 .. SFSCLK4). Use
 * Chip_SCU_ClockPinMux() function for SFSCLKx clock pins.
 */
STATIC INLINE void Chip_SCU_PinMuxSet(uint8_t port, uint8_t pin, uint16_t modefunc)
{
   LPC_SCU->SFSP[port][pin] = modefunc;
1a000642:	4e0e      	ldr	r6, [pc, #56]	; (1a00067c <RotaryEncoder_Init+0x3c>)
1a000644:	2440      	movs	r4, #64	; 0x40
1a000646:	f8c6 4218 	str.w	r4, [r6, #536]	; 0x218
    // Configuración de los pines del encoder como entradas
    Chip_SCU_PinMux(4, 6, SCU_MODE_PULLUP | SCU_MODE_INBUFF_EN, SCU_MODE_FUNC0);  // Configuración para pin A
    Chip_GPIO_SetDir(LPC_GPIO_PORT, ENCODER_PIN_A_PORT, (1 << ENCODER_PIN_A_PIN), 0);
1a00064a:	4d0d      	ldr	r5, [pc, #52]	; (1a000680 <RotaryEncoder_Init+0x40>)
1a00064c:	2300      	movs	r3, #0
1a00064e:	4622      	mov	r2, r4
1a000650:	2102      	movs	r1, #2
1a000652:	4628      	mov	r0, r5
1a000654:	f000 fbc5 	bl	1a000de2 <Chip_GPIO_SetDir>
1a000658:	f8c6 4310 	str.w	r4, [r6, #784]	; 0x310

    Chip_SCU_PinMux(6, 4, SCU_MODE_PULLUP | SCU_MODE_INBUFF_EN, SCU_MODE_FUNC0);  // Configuración para pin B
    Chip_GPIO_SetDir(LPC_GPIO_PORT, ENCODER_PIN_B_PORT, (1 << ENCODER_PIN_B_PIN), 0);
1a00065c:	2300      	movs	r3, #0
1a00065e:	2208      	movs	r2, #8
1a000660:	2103      	movs	r1, #3
1a000662:	4628      	mov	r0, r5
1a000664:	f000 fbbd 	bl	1a000de2 <Chip_GPIO_SetDir>
1a000668:	f8c6 4330 	str.w	r4, [r6, #816]	; 0x330

    Chip_SCU_PinMux(6, 12, SCU_MODE_PULLUP | SCU_MODE_INBUFF_EN, SCU_MODE_FUNC0);  // Configuración para botón
    Chip_GPIO_SetDir(LPC_GPIO_PORT, ENCODER_BUTTON_PORT, (1 << ENCODER_BUTTON_PIN), 0);
1a00066c:	2300      	movs	r3, #0
1a00066e:	f44f 7280 	mov.w	r2, #256	; 0x100
1a000672:	2102      	movs	r1, #2
1a000674:	4628      	mov	r0, r5
1a000676:	f000 fbb4 	bl	1a000de2 <Chip_GPIO_SetDir>
}
1a00067a:	bd70      	pop	{r4, r5, r6, pc}
1a00067c:	40086000 	.word	0x40086000
1a000680:	400f4000 	.word	0x400f4000

1a000684 <RotaryEncoder_Read>:
 * @return true if the GPIO is high, false if low
 * @note   This function replaces Chip_GPIO_ReadPortBit()
 */
STATIC INLINE bool Chip_GPIO_GetPinState(LPC_GPIO_T *pGPIO, uint8_t port, uint8_t pin)
{
   return (bool) pGPIO->B[port][pin];
1a000684:	4a0c      	ldr	r2, [pc, #48]	; (1a0006b8 <RotaryEncoder_Read+0x34>)
1a000686:	f892 3046 	ldrb.w	r3, [r2, #70]	; 0x46
1a00068a:	f003 00ff 	and.w	r0, r3, #255	; 0xff
1a00068e:	3300      	adds	r3, #0
1a000690:	bf18      	it	ne
1a000692:	2301      	movne	r3, #1
1a000694:	f892 2063 	ldrb.w	r2, [r2, #99]	; 0x63
1a000698:	b2d2      	uxtb	r2, r2
    uint8_t stateA = Chip_GPIO_GetPinState(LPC_GPIO_PORT, ENCODER_PIN_A_PORT, ENCODER_PIN_A_PIN);
    uint8_t stateB = Chip_GPIO_GetPinState(LPC_GPIO_PORT, ENCODER_PIN_B_PORT, ENCODER_PIN_B_PIN);

    EncoderState_t direction = ENCODER_NONE;

    if (lastStateA == 0 && stateA == 1) {
1a00069a:	4908      	ldr	r1, [pc, #32]	; (1a0006bc <RotaryEncoder_Read+0x38>)
1a00069c:	7809      	ldrb	r1, [r1, #0]
1a00069e:	b919      	cbnz	r1, 1a0006a8 <RotaryEncoder_Read+0x24>
1a0006a0:	b130      	cbz	r0, 1a0006b0 <RotaryEncoder_Read+0x2c>
        // Flanco ascendente en el pin A
        if (stateB == 0) {
1a0006a2:	b93a      	cbnz	r2, 1a0006b4 <RotaryEncoder_Read+0x30>
            direction = ENCODER_CLOCKWISE;
1a0006a4:	2001      	movs	r0, #1
1a0006a6:	e000      	b.n	1a0006aa <RotaryEncoder_Read+0x26>
    EncoderState_t direction = ENCODER_NONE;
1a0006a8:	2000      	movs	r0, #0
        } else {
            direction = ENCODER_COUNTERCLOCKWISE;
        }
    }
    lastStateA = stateA;
1a0006aa:	4a04      	ldr	r2, [pc, #16]	; (1a0006bc <RotaryEncoder_Read+0x38>)
1a0006ac:	7013      	strb	r3, [r2, #0]
    return direction;
}
1a0006ae:	4770      	bx	lr
    EncoderState_t direction = ENCODER_NONE;
1a0006b0:	2000      	movs	r0, #0
1a0006b2:	e7fa      	b.n	1a0006aa <RotaryEncoder_Read+0x26>
            direction = ENCODER_COUNTERCLOCKWISE;
1a0006b4:	2002      	movs	r0, #2
1a0006b6:	e7f8      	b.n	1a0006aa <RotaryEncoder_Read+0x26>
1a0006b8:	400f4000 	.word	0x400f4000
1a0006bc:	10000180 	.word	0x10000180

1a0006c0 <RotaryEncoder_ButtonPressed>:
1a0006c0:	4b03      	ldr	r3, [pc, #12]	; (1a0006d0 <RotaryEncoder_ButtonPressed+0x10>)
1a0006c2:	f893 0048 	ldrb.w	r0, [r3, #72]	; 0x48

// Función para leer el estado del botón del Rotary Encoder
bool RotaryEncoder_ButtonPressed(void) {
    return !Chip_GPIO_GetPinState(LPC_GPIO_PORT, ENCODER_BUTTON_PORT, ENCODER_BUTTON_PIN);  // Negado porque el pulsador suele ser activo bajo
}
1a0006c6:	fab0 f080 	clz	r0, r0
1a0006ca:	0940      	lsrs	r0, r0, #5
1a0006cc:	4770      	bx	lr
1a0006ce:	bf00      	nop
1a0006d0:	400f4000 	.word	0x400f4000

1a0006d4 <Chip_SetupCoreClock>:
1a0006d4:	b570      	push	{r4, r5, r6, lr}
1a0006d6:	b092      	sub	sp, #72	; 0x48
1a0006d8:	4605      	mov	r5, r0
1a0006da:	460e      	mov	r6, r1
1a0006dc:	4614      	mov	r4, r2
1a0006de:	f241 537c 	movw	r3, #5500	; 0x157c
1a0006e2:	9311      	str	r3, [sp, #68]	; 0x44
1a0006e4:	2806      	cmp	r0, #6
1a0006e6:	d044      	beq.n	1a000772 <Chip_SetupCoreClock+0x9e>
1a0006e8:	2300      	movs	r3, #0
1a0006ea:	2201      	movs	r2, #1
1a0006ec:	4629      	mov	r1, r5
1a0006ee:	2004      	movs	r0, #4
1a0006f0:	f000 faec 	bl	1a000ccc <Chip_Clock_SetBaseClock>
1a0006f4:	4a4a      	ldr	r2, [pc, #296]	; (1a000820 <Chip_SetupCoreClock+0x14c>)
1a0006f6:	6c53      	ldr	r3, [r2, #68]	; 0x44
1a0006f8:	f043 0301 	orr.w	r3, r3, #1
1a0006fc:	6453      	str	r3, [r2, #68]	; 0x44
1a0006fe:	f88d 5028 	strb.w	r5, [sp, #40]	; 0x28
1a000702:	a909      	add	r1, sp, #36	; 0x24
1a000704:	4630      	mov	r0, r6
1a000706:	f000 fa59 	bl	1a000bbc <Chip_Clock_CalcMainPLLValue>
1a00070a:	4b46      	ldr	r3, [pc, #280]	; (1a000824 <Chip_SetupCoreClock+0x150>)
1a00070c:	429e      	cmp	r6, r3
1a00070e:	d938      	bls.n	1a000782 <Chip_SetupCoreClock+0xae>
1a000710:	9b09      	ldr	r3, [sp, #36]	; 0x24
1a000712:	f013 0f80 	tst.w	r3, #128	; 0x80
1a000716:	d001      	beq.n	1a00071c <Chip_SetupCoreClock+0x48>
1a000718:	9a0c      	ldr	r2, [sp, #48]	; 0x30
1a00071a:	b36a      	cbz	r2, 1a000778 <Chip_SetupCoreClock+0xa4>
1a00071c:	f88d 5008 	strb.w	r5, [sp, #8]
1a000720:	a901      	add	r1, sp, #4
1a000722:	4840      	ldr	r0, [pc, #256]	; (1a000824 <Chip_SetupCoreClock+0x150>)
1a000724:	f000 fa4a 	bl	1a000bbc <Chip_Clock_CalcMainPLLValue>
1a000728:	f89d 2008 	ldrb.w	r2, [sp, #8]
1a00072c:	9b01      	ldr	r3, [sp, #4]
1a00072e:	ea43 6302 	orr.w	r3, r3, r2, lsl #24
1a000732:	9a05      	ldr	r2, [sp, #20]
1a000734:	ea43 4302 	orr.w	r3, r3, r2, lsl #16
1a000738:	9a03      	ldr	r2, [sp, #12]
1a00073a:	ea43 3302 	orr.w	r3, r3, r2, lsl #12
1a00073e:	9a04      	ldr	r2, [sp, #16]
1a000740:	ea43 2302 	orr.w	r3, r3, r2, lsl #8
1a000744:	4a36      	ldr	r2, [pc, #216]	; (1a000820 <Chip_SetupCoreClock+0x14c>)
1a000746:	6453      	str	r3, [r2, #68]	; 0x44
1a000748:	4b35      	ldr	r3, [pc, #212]	; (1a000820 <Chip_SetupCoreClock+0x14c>)
1a00074a:	6c1b      	ldr	r3, [r3, #64]	; 0x40
1a00074c:	f013 0f01 	tst.w	r3, #1
1a000750:	d0fa      	beq.n	1a000748 <Chip_SetupCoreClock+0x74>
1a000752:	2300      	movs	r3, #0
1a000754:	2201      	movs	r2, #1
1a000756:	2109      	movs	r1, #9
1a000758:	2004      	movs	r0, #4
1a00075a:	f000 fab7 	bl	1a000ccc <Chip_Clock_SetBaseClock>
1a00075e:	9b11      	ldr	r3, [sp, #68]	; 0x44
1a000760:	1e5a      	subs	r2, r3, #1
1a000762:	9211      	str	r2, [sp, #68]	; 0x44
1a000764:	2b00      	cmp	r3, #0
1a000766:	d1fa      	bne.n	1a00075e <Chip_SetupCoreClock+0x8a>
1a000768:	f241 537c 	movw	r3, #5500	; 0x157c
1a00076c:	9311      	str	r3, [sp, #68]	; 0x44
1a00076e:	2500      	movs	r5, #0
1a000770:	e008      	b.n	1a000784 <Chip_SetupCoreClock+0xb0>
1a000772:	f000 f985 	bl	1a000a80 <Chip_Clock_EnableCrystal>
1a000776:	e7b7      	b.n	1a0006e8 <Chip_SetupCoreClock+0x14>
1a000778:	f023 0380 	bic.w	r3, r3, #128	; 0x80
1a00077c:	9309      	str	r3, [sp, #36]	; 0x24
1a00077e:	2501      	movs	r5, #1
1a000780:	e000      	b.n	1a000784 <Chip_SetupCoreClock+0xb0>
1a000782:	2500      	movs	r5, #0
1a000784:	f89d 2028 	ldrb.w	r2, [sp, #40]	; 0x28
1a000788:	9b09      	ldr	r3, [sp, #36]	; 0x24
1a00078a:	ea43 6302 	orr.w	r3, r3, r2, lsl #24
1a00078e:	9a0d      	ldr	r2, [sp, #52]	; 0x34
1a000790:	ea43 4302 	orr.w	r3, r3, r2, lsl #16
1a000794:	9a0b      	ldr	r2, [sp, #44]	; 0x2c
1a000796:	ea43 3302 	orr.w	r3, r3, r2, lsl #12
1a00079a:	9a0c      	ldr	r2, [sp, #48]	; 0x30
1a00079c:	ea43 2302 	orr.w	r3, r3, r2, lsl #8
1a0007a0:	4a1f      	ldr	r2, [pc, #124]	; (1a000820 <Chip_SetupCoreClock+0x14c>)
1a0007a2:	6453      	str	r3, [r2, #68]	; 0x44
1a0007a4:	4b1e      	ldr	r3, [pc, #120]	; (1a000820 <Chip_SetupCoreClock+0x14c>)
1a0007a6:	6c1b      	ldr	r3, [r3, #64]	; 0x40
1a0007a8:	f013 0f01 	tst.w	r3, #1
1a0007ac:	d0fa      	beq.n	1a0007a4 <Chip_SetupCoreClock+0xd0>
1a0007ae:	2300      	movs	r3, #0
1a0007b0:	2201      	movs	r2, #1
1a0007b2:	2109      	movs	r1, #9
1a0007b4:	2004      	movs	r0, #4
1a0007b6:	f000 fa89 	bl	1a000ccc <Chip_Clock_SetBaseClock>
1a0007ba:	9b11      	ldr	r3, [sp, #68]	; 0x44
1a0007bc:	1e5a      	subs	r2, r3, #1
1a0007be:	9211      	str	r2, [sp, #68]	; 0x44
1a0007c0:	2b00      	cmp	r3, #0
1a0007c2:	d1fa      	bne.n	1a0007ba <Chip_SetupCoreClock+0xe6>
1a0007c4:	b1d5      	cbz	r5, 1a0007fc <Chip_SetupCoreClock+0x128>
1a0007c6:	f241 537c 	movw	r3, #5500	; 0x157c
1a0007ca:	9311      	str	r3, [sp, #68]	; 0x44
1a0007cc:	9b09      	ldr	r3, [sp, #36]	; 0x24
1a0007ce:	f043 0380 	orr.w	r3, r3, #128	; 0x80
1a0007d2:	9309      	str	r3, [sp, #36]	; 0x24
1a0007d4:	f89d 2028 	ldrb.w	r2, [sp, #40]	; 0x28
1a0007d8:	ea43 6302 	orr.w	r3, r3, r2, lsl #24
1a0007dc:	9a0d      	ldr	r2, [sp, #52]	; 0x34
1a0007de:	ea43 4302 	orr.w	r3, r3, r2, lsl #16
1a0007e2:	9a0b      	ldr	r2, [sp, #44]	; 0x2c
1a0007e4:	ea43 3302 	orr.w	r3, r3, r2, lsl #12
1a0007e8:	9a0c      	ldr	r2, [sp, #48]	; 0x30
1a0007ea:	ea43 2302 	orr.w	r3, r3, r2, lsl #8
1a0007ee:	4a0c      	ldr	r2, [pc, #48]	; (1a000820 <Chip_SetupCoreClock+0x14c>)
1a0007f0:	6453      	str	r3, [r2, #68]	; 0x44
1a0007f2:	9b11      	ldr	r3, [sp, #68]	; 0x44
1a0007f4:	1e5a      	subs	r2, r3, #1
1a0007f6:	9211      	str	r2, [sp, #68]	; 0x44
1a0007f8:	2b00      	cmp	r3, #0
1a0007fa:	d1fa      	bne.n	1a0007f2 <Chip_SetupCoreClock+0x11e>
1a0007fc:	b90c      	cbnz	r4, 1a000802 <Chip_SetupCoreClock+0x12e>
1a0007fe:	b012      	add	sp, #72	; 0x48
1a000800:	bd70      	pop	{r4, r5, r6, pc}
1a000802:	2400      	movs	r4, #0
1a000804:	2c11      	cmp	r4, #17
1a000806:	d8fa      	bhi.n	1a0007fe <Chip_SetupCoreClock+0x12a>
1a000808:	4807      	ldr	r0, [pc, #28]	; (1a000828 <Chip_SetupCoreClock+0x154>)
1a00080a:	eb00 0184 	add.w	r1, r0, r4, lsl #2
1a00080e:	78cb      	ldrb	r3, [r1, #3]
1a000810:	788a      	ldrb	r2, [r1, #2]
1a000812:	7849      	ldrb	r1, [r1, #1]
1a000814:	f810 0024 	ldrb.w	r0, [r0, r4, lsl #2]
1a000818:	f000 fa58 	bl	1a000ccc <Chip_Clock_SetBaseClock>
1a00081c:	3401      	adds	r4, #1
1a00081e:	e7f1      	b.n	1a000804 <Chip_SetupCoreClock+0x130>
1a000820:	40050000 	.word	0x40050000
1a000824:	068e7780 	.word	0x068e7780
1a000828:	1a002660 	.word	0x1a002660

1a00082c <fpuInit>:
1a00082c:	b084      	sub	sp, #16
1a00082e:	4b0f      	ldr	r3, [pc, #60]	; (1a00086c <fpuInit+0x40>)
1a000830:	681b      	ldr	r3, [r3, #0]
1a000832:	9302      	str	r3, [sp, #8]
1a000834:	4b0e      	ldr	r3, [pc, #56]	; (1a000870 <fpuInit+0x44>)
1a000836:	681b      	ldr	r3, [r3, #0]
1a000838:	9301      	str	r3, [sp, #4]
1a00083a:	9a02      	ldr	r2, [sp, #8]
1a00083c:	4b0d      	ldr	r3, [pc, #52]	; (1a000874 <fpuInit+0x48>)
1a00083e:	429a      	cmp	r2, r3
1a000840:	d00c      	beq.n	1a00085c <fpuInit+0x30>
1a000842:	2300      	movs	r3, #0
1a000844:	b143      	cbz	r3, 1a000858 <fpuInit+0x2c>
1a000846:	4a0c      	ldr	r2, [pc, #48]	; (1a000878 <fpuInit+0x4c>)
1a000848:	6813      	ldr	r3, [r2, #0]
1a00084a:	9303      	str	r3, [sp, #12]
1a00084c:	9b03      	ldr	r3, [sp, #12]
1a00084e:	f443 0370 	orr.w	r3, r3, #15728640	; 0xf00000
1a000852:	9303      	str	r3, [sp, #12]
1a000854:	9b03      	ldr	r3, [sp, #12]
1a000856:	6013      	str	r3, [r2, #0]
1a000858:	b004      	add	sp, #16
1a00085a:	4770      	bx	lr
1a00085c:	9a01      	ldr	r2, [sp, #4]
1a00085e:	4b07      	ldr	r3, [pc, #28]	; (1a00087c <fpuInit+0x50>)
1a000860:	429a      	cmp	r2, r3
1a000862:	d001      	beq.n	1a000868 <fpuInit+0x3c>
1a000864:	2300      	movs	r3, #0
1a000866:	e7ed      	b.n	1a000844 <fpuInit+0x18>
1a000868:	2301      	movs	r3, #1
1a00086a:	e7eb      	b.n	1a000844 <fpuInit+0x18>
1a00086c:	e000ef40 	.word	0xe000ef40
1a000870:	e000ef44 	.word	0xe000ef44
1a000874:	10110021 	.word	0x10110021
1a000878:	e000ed88 	.word	0xe000ed88
1a00087c:	11000011 	.word	0x11000011

1a000880 <SystemCoreClockUpdate>:
1a000880:	b508      	push	{r3, lr}
1a000882:	2069      	movs	r0, #105	; 0x69
1a000884:	f000 fa86 	bl	1a000d94 <Chip_Clock_GetRate>
1a000888:	4b01      	ldr	r3, [pc, #4]	; (1a000890 <SystemCoreClockUpdate+0x10>)
1a00088a:	6018      	str	r0, [r3, #0]
1a00088c:	bd08      	pop	{r3, pc}
1a00088e:	bf00      	nop
1a000890:	10000198 	.word	0x10000198

1a000894 <pll_calc_divs>:
1a000894:	b4f0      	push	{r4, r5, r6, r7}
1a000896:	680b      	ldr	r3, [r1, #0]
1a000898:	f013 0f80 	tst.w	r3, #128	; 0x80
1a00089c:	d002      	beq.n	1a0008a4 <pll_calc_divs+0x10>
1a00089e:	f023 0340 	bic.w	r3, r3, #64	; 0x40
1a0008a2:	600b      	str	r3, [r1, #0]
1a0008a4:	4607      	mov	r7, r0
1a0008a6:	2501      	movs	r5, #1
1a0008a8:	e03a      	b.n	1a000920 <pll_calc_divs+0x8c>
1a0008aa:	694b      	ldr	r3, [r1, #20]
1a0008ac:	fb03 f302 	mul.w	r3, r3, r2
1a0008b0:	fbb3 f3f5 	udiv	r3, r3, r5
1a0008b4:	e01c      	b.n	1a0008f0 <pll_calc_divs+0x5c>
1a0008b6:	461c      	mov	r4, r3
1a0008b8:	ebb0 0c04 	subs.w	ip, r0, r4
1a0008bc:	d427      	bmi.n	1a00090e <pll_calc_divs+0x7a>
1a0008be:	4567      	cmp	r7, ip
1a0008c0:	d906      	bls.n	1a0008d0 <pll_calc_divs+0x3c>
1a0008c2:	608d      	str	r5, [r1, #8]
1a0008c4:	1c77      	adds	r7, r6, #1
1a0008c6:	60cf      	str	r7, [r1, #12]
1a0008c8:	610a      	str	r2, [r1, #16]
1a0008ca:	618c      	str	r4, [r1, #24]
1a0008cc:	61cb      	str	r3, [r1, #28]
1a0008ce:	4667      	mov	r7, ip
1a0008d0:	3201      	adds	r2, #1
1a0008d2:	f5b2 7f80 	cmp.w	r2, #256	; 0x100
1a0008d6:	dc1d      	bgt.n	1a000914 <pll_calc_divs+0x80>
1a0008d8:	680c      	ldr	r4, [r1, #0]
1a0008da:	f014 0f40 	tst.w	r4, #64	; 0x40
1a0008de:	d0e4      	beq.n	1a0008aa <pll_calc_divs+0x16>
1a0008e0:	1c73      	adds	r3, r6, #1
1a0008e2:	fa02 fc03 	lsl.w	ip, r2, r3
1a0008e6:	694b      	ldr	r3, [r1, #20]
1a0008e8:	fb03 f30c 	mul.w	r3, r3, ip
1a0008ec:	fbb3 f3f5 	udiv	r3, r3, r5
1a0008f0:	f8df c038 	ldr.w	ip, [pc, #56]	; 1a00092c <pll_calc_divs+0x98>
1a0008f4:	4563      	cmp	r3, ip
1a0008f6:	d9eb      	bls.n	1a0008d0 <pll_calc_divs+0x3c>
1a0008f8:	f8df c034 	ldr.w	ip, [pc, #52]	; 1a000930 <pll_calc_divs+0x9c>
1a0008fc:	4563      	cmp	r3, ip
1a0008fe:	d809      	bhi.n	1a000914 <pll_calc_divs+0x80>
1a000900:	f014 0f80 	tst.w	r4, #128	; 0x80
1a000904:	d1d7      	bne.n	1a0008b6 <pll_calc_divs+0x22>
1a000906:	1c74      	adds	r4, r6, #1
1a000908:	fa23 f404 	lsr.w	r4, r3, r4
1a00090c:	e7d4      	b.n	1a0008b8 <pll_calc_divs+0x24>
1a00090e:	f1cc 0c00 	rsb	ip, ip, #0
1a000912:	e7d4      	b.n	1a0008be <pll_calc_divs+0x2a>
1a000914:	3601      	adds	r6, #1
1a000916:	2e03      	cmp	r6, #3
1a000918:	dc01      	bgt.n	1a00091e <pll_calc_divs+0x8a>
1a00091a:	2201      	movs	r2, #1
1a00091c:	e7d9      	b.n	1a0008d2 <pll_calc_divs+0x3e>
1a00091e:	3501      	adds	r5, #1
1a000920:	2d04      	cmp	r5, #4
1a000922:	dc01      	bgt.n	1a000928 <pll_calc_divs+0x94>
1a000924:	2600      	movs	r6, #0
1a000926:	e7f6      	b.n	1a000916 <pll_calc_divs+0x82>
1a000928:	bcf0      	pop	{r4, r5, r6, r7}
1a00092a:	4770      	bx	lr
1a00092c:	094c5eff 	.word	0x094c5eff
1a000930:	1312d000 	.word	0x1312d000

1a000934 <pll_get_frac>:
1a000934:	b5f0      	push	{r4, r5, r6, r7, lr}
1a000936:	b099      	sub	sp, #100	; 0x64
1a000938:	4605      	mov	r5, r0
1a00093a:	460c      	mov	r4, r1
1a00093c:	225c      	movs	r2, #92	; 0x5c
1a00093e:	2100      	movs	r1, #0
1a000940:	a801      	add	r0, sp, #4
1a000942:	f000 fe1f 	bl	1a001584 <memset>
1a000946:	2380      	movs	r3, #128	; 0x80
1a000948:	9300      	str	r3, [sp, #0]
1a00094a:	6963      	ldr	r3, [r4, #20]
1a00094c:	9305      	str	r3, [sp, #20]
1a00094e:	7923      	ldrb	r3, [r4, #4]
1a000950:	f88d 3004 	strb.w	r3, [sp, #4]
1a000954:	4669      	mov	r1, sp
1a000956:	4628      	mov	r0, r5
1a000958:	f7ff ff9c 	bl	1a000894 <pll_calc_divs>
1a00095c:	9b06      	ldr	r3, [sp, #24]
1a00095e:	42ab      	cmp	r3, r5
1a000960:	d02f      	beq.n	1a0009c2 <pll_get_frac+0x8e>
1a000962:	1aeb      	subs	r3, r5, r3
1a000964:	d436      	bmi.n	1a0009d4 <pll_get_frac+0xa0>
1a000966:	461e      	mov	r6, r3
1a000968:	2340      	movs	r3, #64	; 0x40
1a00096a:	9310      	str	r3, [sp, #64]	; 0x40
1a00096c:	6963      	ldr	r3, [r4, #20]
1a00096e:	9315      	str	r3, [sp, #84]	; 0x54
1a000970:	7923      	ldrb	r3, [r4, #4]
1a000972:	f88d 3044 	strb.w	r3, [sp, #68]	; 0x44
1a000976:	a910      	add	r1, sp, #64	; 0x40
1a000978:	4628      	mov	r0, r5
1a00097a:	f7ff ff8b 	bl	1a000894 <pll_calc_divs>
1a00097e:	9b16      	ldr	r3, [sp, #88]	; 0x58
1a000980:	42ab      	cmp	r3, r5
1a000982:	d029      	beq.n	1a0009d8 <pll_get_frac+0xa4>
1a000984:	1aeb      	subs	r3, r5, r3
1a000986:	d42f      	bmi.n	1a0009e8 <pll_get_frac+0xb4>
1a000988:	461f      	mov	r7, r3
1a00098a:	2340      	movs	r3, #64	; 0x40
1a00098c:	9308      	str	r3, [sp, #32]
1a00098e:	6963      	ldr	r3, [r4, #20]
1a000990:	930d      	str	r3, [sp, #52]	; 0x34
1a000992:	7923      	ldrb	r3, [r4, #4]
1a000994:	f88d 3024 	strb.w	r3, [sp, #36]	; 0x24
1a000998:	a908      	add	r1, sp, #32
1a00099a:	4628      	mov	r0, r5
1a00099c:	f7ff ff7a 	bl	1a000894 <pll_calc_divs>
1a0009a0:	9b0e      	ldr	r3, [sp, #56]	; 0x38
1a0009a2:	42ab      	cmp	r3, r5
1a0009a4:	d022      	beq.n	1a0009ec <pll_get_frac+0xb8>
1a0009a6:	1aed      	subs	r5, r5, r3
1a0009a8:	d428      	bmi.n	1a0009fc <pll_get_frac+0xc8>
1a0009aa:	42ae      	cmp	r6, r5
1a0009ac:	dc30      	bgt.n	1a000a10 <pll_get_frac+0xdc>
1a0009ae:	42be      	cmp	r6, r7
1a0009b0:	dc26      	bgt.n	1a000a00 <pll_get_frac+0xcc>
1a0009b2:	466d      	mov	r5, sp
1a0009b4:	cd0f      	ldmia	r5!, {r0, r1, r2, r3}
1a0009b6:	c40f      	stmia	r4!, {r0, r1, r2, r3}
1a0009b8:	e895 000f 	ldmia.w	r5, {r0, r1, r2, r3}
1a0009bc:	e884 000f 	stmia.w	r4, {r0, r1, r2, r3}
1a0009c0:	e006      	b.n	1a0009d0 <pll_get_frac+0x9c>
1a0009c2:	466d      	mov	r5, sp
1a0009c4:	cd0f      	ldmia	r5!, {r0, r1, r2, r3}
1a0009c6:	c40f      	stmia	r4!, {r0, r1, r2, r3}
1a0009c8:	e895 000f 	ldmia.w	r5, {r0, r1, r2, r3}
1a0009cc:	e884 000f 	stmia.w	r4, {r0, r1, r2, r3}
1a0009d0:	b019      	add	sp, #100	; 0x64
1a0009d2:	bdf0      	pop	{r4, r5, r6, r7, pc}
1a0009d4:	425b      	negs	r3, r3
1a0009d6:	e7c6      	b.n	1a000966 <pll_get_frac+0x32>
1a0009d8:	ad10      	add	r5, sp, #64	; 0x40
1a0009da:	cd0f      	ldmia	r5!, {r0, r1, r2, r3}
1a0009dc:	c40f      	stmia	r4!, {r0, r1, r2, r3}
1a0009de:	e895 000f 	ldmia.w	r5, {r0, r1, r2, r3}
1a0009e2:	e884 000f 	stmia.w	r4, {r0, r1, r2, r3}
1a0009e6:	e7f3      	b.n	1a0009d0 <pll_get_frac+0x9c>
1a0009e8:	425b      	negs	r3, r3
1a0009ea:	e7cd      	b.n	1a000988 <pll_get_frac+0x54>
1a0009ec:	ad08      	add	r5, sp, #32
1a0009ee:	cd0f      	ldmia	r5!, {r0, r1, r2, r3}
1a0009f0:	c40f      	stmia	r4!, {r0, r1, r2, r3}
1a0009f2:	e895 000f 	ldmia.w	r5, {r0, r1, r2, r3}
1a0009f6:	e884 000f 	stmia.w	r4, {r0, r1, r2, r3}
1a0009fa:	e7e9      	b.n	1a0009d0 <pll_get_frac+0x9c>
1a0009fc:	426d      	negs	r5, r5
1a0009fe:	e7d4      	b.n	1a0009aa <pll_get_frac+0x76>
1a000a00:	ad10      	add	r5, sp, #64	; 0x40
1a000a02:	cd0f      	ldmia	r5!, {r0, r1, r2, r3}
1a000a04:	c40f      	stmia	r4!, {r0, r1, r2, r3}
1a000a06:	e895 000f 	ldmia.w	r5, {r0, r1, r2, r3}
1a000a0a:	e884 000f 	stmia.w	r4, {r0, r1, r2, r3}
1a000a0e:	e7df      	b.n	1a0009d0 <pll_get_frac+0x9c>
1a000a10:	42af      	cmp	r7, r5
1a000a12:	db07      	blt.n	1a000a24 <pll_get_frac+0xf0>
1a000a14:	ad08      	add	r5, sp, #32
1a000a16:	cd0f      	ldmia	r5!, {r0, r1, r2, r3}
1a000a18:	c40f      	stmia	r4!, {r0, r1, r2, r3}
1a000a1a:	e895 000f 	ldmia.w	r5, {r0, r1, r2, r3}
1a000a1e:	e884 000f 	stmia.w	r4, {r0, r1, r2, r3}
1a000a22:	e7d5      	b.n	1a0009d0 <pll_get_frac+0x9c>
1a000a24:	ad10      	add	r5, sp, #64	; 0x40
1a000a26:	cd0f      	ldmia	r5!, {r0, r1, r2, r3}
1a000a28:	c40f      	stmia	r4!, {r0, r1, r2, r3}
1a000a2a:	e895 000f 	ldmia.w	r5, {r0, r1, r2, r3}
1a000a2e:	e884 000f 	stmia.w	r4, {r0, r1, r2, r3}
1a000a32:	e7cd      	b.n	1a0009d0 <pll_get_frac+0x9c>

1a000a34 <Chip_Clock_FindBaseClock>:
1a000a34:	b430      	push	{r4, r5}
1a000a36:	4605      	mov	r5, r0
1a000a38:	2300      	movs	r3, #0
1a000a3a:	201c      	movs	r0, #28
1a000a3c:	e000      	b.n	1a000a40 <Chip_Clock_FindBaseClock+0xc>
1a000a3e:	3301      	adds	r3, #1
1a000a40:	281c      	cmp	r0, #28
1a000a42:	d118      	bne.n	1a000a76 <Chip_Clock_FindBaseClock+0x42>
1a000a44:	eb03 0243 	add.w	r2, r3, r3, lsl #1
1a000a48:	0051      	lsls	r1, r2, #1
1a000a4a:	4a0c      	ldr	r2, [pc, #48]	; (1a000a7c <Chip_Clock_FindBaseClock+0x48>)
1a000a4c:	440a      	add	r2, r1
1a000a4e:	7914      	ldrb	r4, [r2, #4]
1a000a50:	4284      	cmp	r4, r0
1a000a52:	d010      	beq.n	1a000a76 <Chip_Clock_FindBaseClock+0x42>
1a000a54:	eb03 0143 	add.w	r1, r3, r3, lsl #1
1a000a58:	004a      	lsls	r2, r1, #1
1a000a5a:	4908      	ldr	r1, [pc, #32]	; (1a000a7c <Chip_Clock_FindBaseClock+0x48>)
1a000a5c:	5a8a      	ldrh	r2, [r1, r2]
1a000a5e:	42aa      	cmp	r2, r5
1a000a60:	d8ed      	bhi.n	1a000a3e <Chip_Clock_FindBaseClock+0xa>
1a000a62:	eb03 0243 	add.w	r2, r3, r3, lsl #1
1a000a66:	0051      	lsls	r1, r2, #1
1a000a68:	4a04      	ldr	r2, [pc, #16]	; (1a000a7c <Chip_Clock_FindBaseClock+0x48>)
1a000a6a:	440a      	add	r2, r1
1a000a6c:	8852      	ldrh	r2, [r2, #2]
1a000a6e:	42aa      	cmp	r2, r5
1a000a70:	d3e5      	bcc.n	1a000a3e <Chip_Clock_FindBaseClock+0xa>
1a000a72:	4620      	mov	r0, r4
1a000a74:	e7e4      	b.n	1a000a40 <Chip_Clock_FindBaseClock+0xc>
1a000a76:	bc30      	pop	{r4, r5}
1a000a78:	4770      	bx	lr
1a000a7a:	bf00      	nop
1a000a7c:	1a0026b4 	.word	0x1a0026b4

1a000a80 <Chip_Clock_EnableCrystal>:
1a000a80:	b082      	sub	sp, #8
1a000a82:	f44f 737a 	mov.w	r3, #1000	; 0x3e8
1a000a86:	9301      	str	r3, [sp, #4]
1a000a88:	4a0d      	ldr	r2, [pc, #52]	; (1a000ac0 <Chip_Clock_EnableCrystal+0x40>)
1a000a8a:	6993      	ldr	r3, [r2, #24]
1a000a8c:	f023 0102 	bic.w	r1, r3, #2
1a000a90:	6992      	ldr	r2, [r2, #24]
1a000a92:	428a      	cmp	r2, r1
1a000a94:	d001      	beq.n	1a000a9a <Chip_Clock_EnableCrystal+0x1a>
1a000a96:	4a0a      	ldr	r2, [pc, #40]	; (1a000ac0 <Chip_Clock_EnableCrystal+0x40>)
1a000a98:	6191      	str	r1, [r2, #24]
1a000a9a:	f023 0303 	bic.w	r3, r3, #3
1a000a9e:	4a09      	ldr	r2, [pc, #36]	; (1a000ac4 <Chip_Clock_EnableCrystal+0x44>)
1a000aa0:	6811      	ldr	r1, [r2, #0]
1a000aa2:	4a09      	ldr	r2, [pc, #36]	; (1a000ac8 <Chip_Clock_EnableCrystal+0x48>)
1a000aa4:	4291      	cmp	r1, r2
1a000aa6:	d901      	bls.n	1a000aac <Chip_Clock_EnableCrystal+0x2c>
1a000aa8:	f043 0304 	orr.w	r3, r3, #4
1a000aac:	4a04      	ldr	r2, [pc, #16]	; (1a000ac0 <Chip_Clock_EnableCrystal+0x40>)
1a000aae:	6193      	str	r3, [r2, #24]
1a000ab0:	9b01      	ldr	r3, [sp, #4]
1a000ab2:	1e5a      	subs	r2, r3, #1
1a000ab4:	9201      	str	r2, [sp, #4]
1a000ab6:	2b00      	cmp	r3, #0
1a000ab8:	d1fa      	bne.n	1a000ab0 <Chip_Clock_EnableCrystal+0x30>
1a000aba:	b002      	add	sp, #8
1a000abc:	4770      	bx	lr
1a000abe:	bf00      	nop
1a000ac0:	40050000 	.word	0x40050000
1a000ac4:	1a0027a0 	.word	0x1a0027a0
1a000ac8:	01312cff 	.word	0x01312cff

1a000acc <Chip_Clock_GetDividerSource>:
1a000acc:	3012      	adds	r0, #18
1a000ace:	4b05      	ldr	r3, [pc, #20]	; (1a000ae4 <Chip_Clock_GetDividerSource+0x18>)
1a000ad0:	f853 0020 	ldr.w	r0, [r3, r0, lsl #2]
1a000ad4:	f010 0f01 	tst.w	r0, #1
1a000ad8:	d102      	bne.n	1a000ae0 <Chip_Clock_GetDividerSource+0x14>
1a000ada:	f3c0 6004 	ubfx	r0, r0, #24, #5
1a000ade:	4770      	bx	lr
1a000ae0:	2011      	movs	r0, #17
1a000ae2:	4770      	bx	lr
1a000ae4:	40050000 	.word	0x40050000

1a000ae8 <Chip_Clock_GetDividerDivisor>:
1a000ae8:	f100 0212 	add.w	r2, r0, #18
1a000aec:	4b03      	ldr	r3, [pc, #12]	; (1a000afc <Chip_Clock_GetDividerDivisor+0x14>)
1a000aee:	f853 2022 	ldr.w	r2, [r3, r2, lsl #2]
1a000af2:	4b03      	ldr	r3, [pc, #12]	; (1a000b00 <Chip_Clock_GetDividerDivisor+0x18>)
1a000af4:	5c18      	ldrb	r0, [r3, r0]
1a000af6:	ea00 0092 	and.w	r0, r0, r2, lsr #2
1a000afa:	4770      	bx	lr
1a000afc:	40050000 	.word	0x40050000
1a000b00:	1a0026ac 	.word	0x1a0026ac

1a000b04 <Chip_Clock_GetClockInputHz>:
1a000b04:	b508      	push	{r3, lr}
1a000b06:	2810      	cmp	r0, #16
1a000b08:	d80a      	bhi.n	1a000b20 <Chip_Clock_GetClockInputHz+0x1c>
1a000b0a:	e8df f000 	tbb	[pc, r0]
1a000b0e:	0b44      	.short	0x0b44
1a000b10:	0921180d 	.word	0x0921180d
1a000b14:	2d2a2724 	.word	0x2d2a2724
1a000b18:	34300909 	.word	0x34300909
1a000b1c:	3c38      	.short	0x3c38
1a000b1e:	40          	.byte	0x40
1a000b1f:	00          	.byte	0x00
1a000b20:	2000      	movs	r0, #0
1a000b22:	e03a      	b.n	1a000b9a <Chip_Clock_GetClockInputHz+0x96>
1a000b24:	481e      	ldr	r0, [pc, #120]	; (1a000ba0 <Chip_Clock_GetClockInputHz+0x9c>)
1a000b26:	e038      	b.n	1a000b9a <Chip_Clock_GetClockInputHz+0x96>
1a000b28:	4b1e      	ldr	r3, [pc, #120]	; (1a000ba4 <Chip_Clock_GetClockInputHz+0xa0>)
1a000b2a:	f8d3 312c 	ldr.w	r3, [r3, #300]	; 0x12c
1a000b2e:	f003 0307 	and.w	r3, r3, #7
1a000b32:	2b04      	cmp	r3, #4
1a000b34:	d001      	beq.n	1a000b3a <Chip_Clock_GetClockInputHz+0x36>
1a000b36:	481c      	ldr	r0, [pc, #112]	; (1a000ba8 <Chip_Clock_GetClockInputHz+0xa4>)
1a000b38:	e02f      	b.n	1a000b9a <Chip_Clock_GetClockInputHz+0x96>
1a000b3a:	2000      	movs	r0, #0
1a000b3c:	e02d      	b.n	1a000b9a <Chip_Clock_GetClockInputHz+0x96>
1a000b3e:	4b19      	ldr	r3, [pc, #100]	; (1a000ba4 <Chip_Clock_GetClockInputHz+0xa0>)
1a000b40:	f8d3 312c 	ldr.w	r3, [r3, #300]	; 0x12c
1a000b44:	f003 0307 	and.w	r3, r3, #7
1a000b48:	2b04      	cmp	r3, #4
1a000b4a:	d027      	beq.n	1a000b9c <Chip_Clock_GetClockInputHz+0x98>
1a000b4c:	4816      	ldr	r0, [pc, #88]	; (1a000ba8 <Chip_Clock_GetClockInputHz+0xa4>)
1a000b4e:	e024      	b.n	1a000b9a <Chip_Clock_GetClockInputHz+0x96>
1a000b50:	4b16      	ldr	r3, [pc, #88]	; (1a000bac <Chip_Clock_GetClockInputHz+0xa8>)
1a000b52:	6818      	ldr	r0, [r3, #0]
1a000b54:	e021      	b.n	1a000b9a <Chip_Clock_GetClockInputHz+0x96>
1a000b56:	4b16      	ldr	r3, [pc, #88]	; (1a000bb0 <Chip_Clock_GetClockInputHz+0xac>)
1a000b58:	6818      	ldr	r0, [r3, #0]
1a000b5a:	e01e      	b.n	1a000b9a <Chip_Clock_GetClockInputHz+0x96>
1a000b5c:	4b15      	ldr	r3, [pc, #84]	; (1a000bb4 <Chip_Clock_GetClockInputHz+0xb0>)
1a000b5e:	6818      	ldr	r0, [r3, #0]
1a000b60:	e01b      	b.n	1a000b9a <Chip_Clock_GetClockInputHz+0x96>
1a000b62:	4b14      	ldr	r3, [pc, #80]	; (1a000bb4 <Chip_Clock_GetClockInputHz+0xb0>)
1a000b64:	6858      	ldr	r0, [r3, #4]
1a000b66:	e018      	b.n	1a000b9a <Chip_Clock_GetClockInputHz+0x96>
1a000b68:	f000 f868 	bl	1a000c3c <Chip_Clock_GetMainPLLHz>
1a000b6c:	e015      	b.n	1a000b9a <Chip_Clock_GetClockInputHz+0x96>
1a000b6e:	2100      	movs	r1, #0
1a000b70:	f000 f89a 	bl	1a000ca8 <Chip_Clock_GetDivRate>
1a000b74:	e011      	b.n	1a000b9a <Chip_Clock_GetClockInputHz+0x96>
1a000b76:	2101      	movs	r1, #1
1a000b78:	f000 f896 	bl	1a000ca8 <Chip_Clock_GetDivRate>
1a000b7c:	e00d      	b.n	1a000b9a <Chip_Clock_GetClockInputHz+0x96>
1a000b7e:	2102      	movs	r1, #2
1a000b80:	f000 f892 	bl	1a000ca8 <Chip_Clock_GetDivRate>
1a000b84:	e009      	b.n	1a000b9a <Chip_Clock_GetClockInputHz+0x96>
1a000b86:	2103      	movs	r1, #3
1a000b88:	f000 f88e 	bl	1a000ca8 <Chip_Clock_GetDivRate>
1a000b8c:	e005      	b.n	1a000b9a <Chip_Clock_GetClockInputHz+0x96>
1a000b8e:	2104      	movs	r1, #4
1a000b90:	f000 f88a 	bl	1a000ca8 <Chip_Clock_GetDivRate>
1a000b94:	e001      	b.n	1a000b9a <Chip_Clock_GetClockInputHz+0x96>
1a000b96:	f44f 4000 	mov.w	r0, #32768	; 0x8000
1a000b9a:	bd08      	pop	{r3, pc}
1a000b9c:	4806      	ldr	r0, [pc, #24]	; (1a000bb8 <Chip_Clock_GetClockInputHz+0xb4>)
1a000b9e:	e7fc      	b.n	1a000b9a <Chip_Clock_GetClockInputHz+0x96>
1a000ba0:	00b71b00 	.word	0x00b71b00
1a000ba4:	40043000 	.word	0x40043000
1a000ba8:	017d7840 	.word	0x017d7840
1a000bac:	1a00279c 	.word	0x1a00279c
1a000bb0:	1a0027a0 	.word	0x1a0027a0
1a000bb4:	10000184 	.word	0x10000184
1a000bb8:	02faf080 	.word	0x02faf080

1a000bbc <Chip_Clock_CalcMainPLLValue>:
1a000bbc:	b538      	push	{r3, r4, r5, lr}
1a000bbe:	4605      	mov	r5, r0
1a000bc0:	460c      	mov	r4, r1
1a000bc2:	7908      	ldrb	r0, [r1, #4]
1a000bc4:	f7ff ff9e 	bl	1a000b04 <Chip_Clock_GetClockInputHz>
1a000bc8:	6160      	str	r0, [r4, #20]
1a000bca:	4b19      	ldr	r3, [pc, #100]	; (1a000c30 <Chip_Clock_CalcMainPLLValue+0x74>)
1a000bcc:	442b      	add	r3, r5
1a000bce:	4a19      	ldr	r2, [pc, #100]	; (1a000c34 <Chip_Clock_CalcMainPLLValue+0x78>)
1a000bd0:	4293      	cmp	r3, r2
1a000bd2:	d821      	bhi.n	1a000c18 <Chip_Clock_CalcMainPLLValue+0x5c>
1a000bd4:	b318      	cbz	r0, 1a000c1e <Chip_Clock_CalcMainPLLValue+0x62>
1a000bd6:	2380      	movs	r3, #128	; 0x80
1a000bd8:	6023      	str	r3, [r4, #0]
1a000bda:	2300      	movs	r3, #0
1a000bdc:	60a3      	str	r3, [r4, #8]
1a000bde:	60e3      	str	r3, [r4, #12]
1a000be0:	fbb5 f3f0 	udiv	r3, r5, r0
1a000be4:	6123      	str	r3, [r4, #16]
1a000be6:	4a14      	ldr	r2, [pc, #80]	; (1a000c38 <Chip_Clock_CalcMainPLLValue+0x7c>)
1a000be8:	4295      	cmp	r5, r2
1a000bea:	d903      	bls.n	1a000bf4 <Chip_Clock_CalcMainPLLValue+0x38>
1a000bec:	fb03 f000 	mul.w	r0, r3, r0
1a000bf0:	42a8      	cmp	r0, r5
1a000bf2:	d007      	beq.n	1a000c04 <Chip_Clock_CalcMainPLLValue+0x48>
1a000bf4:	4621      	mov	r1, r4
1a000bf6:	4628      	mov	r0, r5
1a000bf8:	f7ff fe9c 	bl	1a000934 <pll_get_frac>
1a000bfc:	68a3      	ldr	r3, [r4, #8]
1a000bfe:	b18b      	cbz	r3, 1a000c24 <Chip_Clock_CalcMainPLLValue+0x68>
1a000c00:	3b01      	subs	r3, #1
1a000c02:	60a3      	str	r3, [r4, #8]
1a000c04:	6923      	ldr	r3, [r4, #16]
1a000c06:	b183      	cbz	r3, 1a000c2a <Chip_Clock_CalcMainPLLValue+0x6e>
1a000c08:	68e2      	ldr	r2, [r4, #12]
1a000c0a:	b10a      	cbz	r2, 1a000c10 <Chip_Clock_CalcMainPLLValue+0x54>
1a000c0c:	3a01      	subs	r2, #1
1a000c0e:	60e2      	str	r2, [r4, #12]
1a000c10:	3b01      	subs	r3, #1
1a000c12:	6123      	str	r3, [r4, #16]
1a000c14:	2000      	movs	r0, #0
1a000c16:	bd38      	pop	{r3, r4, r5, pc}
1a000c18:	f04f 30ff 	mov.w	r0, #4294967295
1a000c1c:	e7fb      	b.n	1a000c16 <Chip_Clock_CalcMainPLLValue+0x5a>
1a000c1e:	f04f 30ff 	mov.w	r0, #4294967295
1a000c22:	e7f8      	b.n	1a000c16 <Chip_Clock_CalcMainPLLValue+0x5a>
1a000c24:	f04f 30ff 	mov.w	r0, #4294967295
1a000c28:	e7f5      	b.n	1a000c16 <Chip_Clock_CalcMainPLLValue+0x5a>
1a000c2a:	f04f 30ff 	mov.w	r0, #4294967295
1a000c2e:	e7f2      	b.n	1a000c16 <Chip_Clock_CalcMainPLLValue+0x5a>
1a000c30:	ff6b3a10 	.word	0xff6b3a10
1a000c34:	0b940510 	.word	0x0b940510
1a000c38:	094c5eff 	.word	0x094c5eff

1a000c3c <Chip_Clock_GetMainPLLHz>:
1a000c3c:	b530      	push	{r4, r5, lr}
1a000c3e:	b083      	sub	sp, #12
1a000c40:	4d17      	ldr	r5, [pc, #92]	; (1a000ca0 <Chip_Clock_GetMainPLLHz+0x64>)
1a000c42:	6c6c      	ldr	r4, [r5, #68]	; 0x44
1a000c44:	f3c4 6003 	ubfx	r0, r4, #24, #4
1a000c48:	f7ff ff5c 	bl	1a000b04 <Chip_Clock_GetClockInputHz>
1a000c4c:	4b15      	ldr	r3, [pc, #84]	; (1a000ca4 <Chip_Clock_GetMainPLLHz+0x68>)
1a000c4e:	681b      	ldr	r3, [r3, #0]
1a000c50:	9301      	str	r3, [sp, #4]
1a000c52:	6c2b      	ldr	r3, [r5, #64]	; 0x40
1a000c54:	f013 0f01 	tst.w	r3, #1
1a000c58:	d020      	beq.n	1a000c9c <Chip_Clock_GetMainPLLHz+0x60>
1a000c5a:	f3c4 4307 	ubfx	r3, r4, #16, #8
1a000c5e:	f3c4 3201 	ubfx	r2, r4, #12, #2
1a000c62:	f3c4 2101 	ubfx	r1, r4, #8, #2
1a000c66:	f3c4 1580 	ubfx	r5, r4, #6, #1
1a000c6a:	3301      	adds	r3, #1
1a000c6c:	3201      	adds	r2, #1
1a000c6e:	f10d 0c08 	add.w	ip, sp, #8
1a000c72:	4461      	add	r1, ip
1a000c74:	f811 1c04 	ldrb.w	r1, [r1, #-4]
1a000c78:	f014 0f80 	tst.w	r4, #128	; 0x80
1a000c7c:	d108      	bne.n	1a000c90 <Chip_Clock_GetMainPLLHz+0x54>
1a000c7e:	b93d      	cbnz	r5, 1a000c90 <Chip_Clock_GetMainPLLHz+0x54>
1a000c80:	0049      	lsls	r1, r1, #1
1a000c82:	fbb3 f3f1 	udiv	r3, r3, r1
1a000c86:	fbb0 f0f2 	udiv	r0, r0, r2
1a000c8a:	fb00 f003 	mul.w	r0, r0, r3
1a000c8e:	e003      	b.n	1a000c98 <Chip_Clock_GetMainPLLHz+0x5c>
1a000c90:	fbb0 f0f2 	udiv	r0, r0, r2
1a000c94:	fb03 f000 	mul.w	r0, r3, r0
1a000c98:	b003      	add	sp, #12
1a000c9a:	bd30      	pop	{r4, r5, pc}
1a000c9c:	2000      	movs	r0, #0
1a000c9e:	e7fb      	b.n	1a000c98 <Chip_Clock_GetMainPLLHz+0x5c>
1a000ca0:	40050000 	.word	0x40050000
1a000ca4:	1a0026a8 	.word	0x1a0026a8

1a000ca8 <Chip_Clock_GetDivRate>:
1a000ca8:	b538      	push	{r3, r4, r5, lr}
1a000caa:	460c      	mov	r4, r1
1a000cac:	4608      	mov	r0, r1
1a000cae:	f7ff ff0d 	bl	1a000acc <Chip_Clock_GetDividerSource>
1a000cb2:	4605      	mov	r5, r0
1a000cb4:	4620      	mov	r0, r4
1a000cb6:	f7ff ff17 	bl	1a000ae8 <Chip_Clock_GetDividerDivisor>
1a000cba:	4604      	mov	r4, r0
1a000cbc:	4628      	mov	r0, r5
1a000cbe:	f7ff ff21 	bl	1a000b04 <Chip_Clock_GetClockInputHz>
1a000cc2:	3401      	adds	r4, #1
1a000cc4:	fbb0 f0f4 	udiv	r0, r0, r4
1a000cc8:	bd38      	pop	{r3, r4, r5, pc}
1a000cca:	Address 0x1a000cca is out of bounds.


1a000ccc <Chip_Clock_SetBaseClock>:
1a000ccc:	b430      	push	{r4, r5}
1a000cce:	f100 0416 	add.w	r4, r0, #22
1a000cd2:	00a4      	lsls	r4, r4, #2
1a000cd4:	f104 4480 	add.w	r4, r4, #1073741824	; 0x40000000
1a000cd8:	f504 24a0 	add.w	r4, r4, #327680	; 0x50000
1a000cdc:	6864      	ldr	r4, [r4, #4]
1a000cde:	281b      	cmp	r0, #27
1a000ce0:	d813      	bhi.n	1a000d0a <Chip_Clock_SetBaseClock+0x3e>
1a000ce2:	2911      	cmp	r1, #17
1a000ce4:	d01a      	beq.n	1a000d1c <Chip_Clock_SetBaseClock+0x50>
1a000ce6:	4d0e      	ldr	r5, [pc, #56]	; (1a000d20 <Chip_Clock_SetBaseClock+0x54>)
1a000ce8:	4025      	ands	r5, r4
1a000cea:	b10a      	cbz	r2, 1a000cf0 <Chip_Clock_SetBaseClock+0x24>
1a000cec:	f445 6500 	orr.w	r5, r5, #2048	; 0x800
1a000cf0:	b10b      	cbz	r3, 1a000cf6 <Chip_Clock_SetBaseClock+0x2a>
1a000cf2:	f045 0501 	orr.w	r5, r5, #1
1a000cf6:	ea45 6501 	orr.w	r5, r5, r1, lsl #24
1a000cfa:	3016      	adds	r0, #22
1a000cfc:	0080      	lsls	r0, r0, #2
1a000cfe:	f100 4080 	add.w	r0, r0, #1073741824	; 0x40000000
1a000d02:	f500 20a0 	add.w	r0, r0, #327680	; 0x50000
1a000d06:	6045      	str	r5, [r0, #4]
1a000d08:	e008      	b.n	1a000d1c <Chip_Clock_SetBaseClock+0x50>
1a000d0a:	f044 0401 	orr.w	r4, r4, #1
1a000d0e:	3016      	adds	r0, #22
1a000d10:	0080      	lsls	r0, r0, #2
1a000d12:	f100 4080 	add.w	r0, r0, #1073741824	; 0x40000000
1a000d16:	f500 20a0 	add.w	r0, r0, #327680	; 0x50000
1a000d1a:	6044      	str	r4, [r0, #4]
1a000d1c:	bc30      	pop	{r4, r5}
1a000d1e:	4770      	bx	lr
1a000d20:	e0fff7fe 	.word	0xe0fff7fe

1a000d24 <Chip_Clock_GetBaseClock>:
1a000d24:	281b      	cmp	r0, #27
1a000d26:	d80c      	bhi.n	1a000d42 <Chip_Clock_GetBaseClock+0x1e>
1a000d28:	3016      	adds	r0, #22
1a000d2a:	0080      	lsls	r0, r0, #2
1a000d2c:	f100 4080 	add.w	r0, r0, #1073741824	; 0x40000000
1a000d30:	f500 20a0 	add.w	r0, r0, #327680	; 0x50000
1a000d34:	6840      	ldr	r0, [r0, #4]
1a000d36:	f010 0f01 	tst.w	r0, #1
1a000d3a:	d104      	bne.n	1a000d46 <Chip_Clock_GetBaseClock+0x22>
1a000d3c:	f3c0 6004 	ubfx	r0, r0, #24, #5
1a000d40:	4770      	bx	lr
1a000d42:	2011      	movs	r0, #17
1a000d44:	4770      	bx	lr
1a000d46:	2011      	movs	r0, #17
1a000d48:	4770      	bx	lr

1a000d4a <Chip_Clock_GetBaseClocktHz>:
1a000d4a:	b508      	push	{r3, lr}
1a000d4c:	f7ff ffea 	bl	1a000d24 <Chip_Clock_GetBaseClock>
1a000d50:	f7ff fed8 	bl	1a000b04 <Chip_Clock_GetClockInputHz>
1a000d54:	bd08      	pop	{r3, pc}
1a000d56:	Address 0x1a000d56 is out of bounds.


1a000d58 <Chip_Clock_EnableOpts>:
1a000d58:	b971      	cbnz	r1, 1a000d78 <Chip_Clock_EnableOpts+0x20>
1a000d5a:	2101      	movs	r1, #1
1a000d5c:	b10a      	cbz	r2, 1a000d62 <Chip_Clock_EnableOpts+0xa>
1a000d5e:	f041 0104 	orr.w	r1, r1, #4
1a000d62:	2b02      	cmp	r3, #2
1a000d64:	d00a      	beq.n	1a000d7c <Chip_Clock_EnableOpts+0x24>
1a000d66:	f5b0 7fa1 	cmp.w	r0, #322	; 0x142
1a000d6a:	d30a      	bcc.n	1a000d82 <Chip_Clock_EnableOpts+0x2a>
1a000d6c:	f5a0 7091 	sub.w	r0, r0, #290	; 0x122
1a000d70:	4b06      	ldr	r3, [pc, #24]	; (1a000d8c <Chip_Clock_EnableOpts+0x34>)
1a000d72:	f843 1030 	str.w	r1, [r3, r0, lsl #3]
1a000d76:	4770      	bx	lr
1a000d78:	2103      	movs	r1, #3
1a000d7a:	e7ef      	b.n	1a000d5c <Chip_Clock_EnableOpts+0x4>
1a000d7c:	f041 0120 	orr.w	r1, r1, #32
1a000d80:	e7f1      	b.n	1a000d66 <Chip_Clock_EnableOpts+0xe>
1a000d82:	3020      	adds	r0, #32
1a000d84:	4b02      	ldr	r3, [pc, #8]	; (1a000d90 <Chip_Clock_EnableOpts+0x38>)
1a000d86:	f843 1030 	str.w	r1, [r3, r0, lsl #3]
1a000d8a:	4770      	bx	lr
1a000d8c:	40052000 	.word	0x40052000
1a000d90:	40051000 	.word	0x40051000

1a000d94 <Chip_Clock_GetRate>:
1a000d94:	b510      	push	{r4, lr}
1a000d96:	f5b0 7fa1 	cmp.w	r0, #322	; 0x142
1a000d9a:	d309      	bcc.n	1a000db0 <Chip_Clock_GetRate+0x1c>
1a000d9c:	f5a0 7391 	sub.w	r3, r0, #290	; 0x122
1a000da0:	4a0d      	ldr	r2, [pc, #52]	; (1a000dd8 <Chip_Clock_GetRate+0x44>)
1a000da2:	f852 4033 	ldr.w	r4, [r2, r3, lsl #3]
1a000da6:	f014 0f01 	tst.w	r4, #1
1a000daa:	d107      	bne.n	1a000dbc <Chip_Clock_GetRate+0x28>
1a000dac:	2000      	movs	r0, #0
1a000dae:	bd10      	pop	{r4, pc}
1a000db0:	f100 0320 	add.w	r3, r0, #32
1a000db4:	4a09      	ldr	r2, [pc, #36]	; (1a000ddc <Chip_Clock_GetRate+0x48>)
1a000db6:	f852 4033 	ldr.w	r4, [r2, r3, lsl #3]
1a000dba:	e7f4      	b.n	1a000da6 <Chip_Clock_GetRate+0x12>
1a000dbc:	f7ff fe3a 	bl	1a000a34 <Chip_Clock_FindBaseClock>
1a000dc0:	f7ff ffc3 	bl	1a000d4a <Chip_Clock_GetBaseClocktHz>
1a000dc4:	f014 0fe0 	tst.w	r4, #224	; 0xe0
1a000dc8:	d103      	bne.n	1a000dd2 <Chip_Clock_GetRate+0x3e>
1a000dca:	2301      	movs	r3, #1
1a000dcc:	fbb0 f0f3 	udiv	r0, r0, r3
1a000dd0:	e7ed      	b.n	1a000dae <Chip_Clock_GetRate+0x1a>
1a000dd2:	2302      	movs	r3, #2
1a000dd4:	e7fa      	b.n	1a000dcc <Chip_Clock_GetRate+0x38>
1a000dd6:	bf00      	nop
1a000dd8:	40052000 	.word	0x40052000
1a000ddc:	40051000 	.word	0x40051000

1a000de0 <Chip_GPIO_Init>:
1a000de0:	4770      	bx	lr

1a000de2 <Chip_GPIO_SetDir>:
1a000de2:	b13b      	cbz	r3, 1a000df4 <Chip_GPIO_SetDir+0x12>
1a000de4:	f501 6100 	add.w	r1, r1, #2048	; 0x800
1a000de8:	f850 3021 	ldr.w	r3, [r0, r1, lsl #2]
1a000dec:	4313      	orrs	r3, r2
1a000dee:	f840 3021 	str.w	r3, [r0, r1, lsl #2]
1a000df2:	4770      	bx	lr
1a000df4:	f501 6100 	add.w	r1, r1, #2048	; 0x800
1a000df8:	f850 3021 	ldr.w	r3, [r0, r1, lsl #2]
1a000dfc:	ea23 0302 	bic.w	r3, r3, r2
1a000e00:	f840 3021 	str.w	r3, [r0, r1, lsl #2]
1a000e04:	4770      	bx	lr
1a000e06:	Address 0x1a000e06 is out of bounds.


1a000e08 <Chip_UART_GetIndex>:
1a000e08:	4b09      	ldr	r3, [pc, #36]	; (1a000e30 <Chip_UART_GetIndex+0x28>)
1a000e0a:	4298      	cmp	r0, r3
1a000e0c:	d009      	beq.n	1a000e22 <Chip_UART_GetIndex+0x1a>
1a000e0e:	f503 5380 	add.w	r3, r3, #4096	; 0x1000
1a000e12:	4298      	cmp	r0, r3
1a000e14:	d007      	beq.n	1a000e26 <Chip_UART_GetIndex+0x1e>
1a000e16:	f5a3 2380 	sub.w	r3, r3, #262144	; 0x40000
1a000e1a:	4298      	cmp	r0, r3
1a000e1c:	d005      	beq.n	1a000e2a <Chip_UART_GetIndex+0x22>
1a000e1e:	2000      	movs	r0, #0
1a000e20:	4770      	bx	lr
1a000e22:	2002      	movs	r0, #2
1a000e24:	4770      	bx	lr
1a000e26:	2003      	movs	r0, #3
1a000e28:	4770      	bx	lr
1a000e2a:	2001      	movs	r0, #1
1a000e2c:	4770      	bx	lr
1a000e2e:	bf00      	nop
1a000e30:	400c1000 	.word	0x400c1000

1a000e34 <Chip_UART_Init>:
1a000e34:	b530      	push	{r4, r5, lr}
1a000e36:	b083      	sub	sp, #12
1a000e38:	4604      	mov	r4, r0
1a000e3a:	f7ff ffe5 	bl	1a000e08 <Chip_UART_GetIndex>
1a000e3e:	2301      	movs	r3, #1
1a000e40:	461a      	mov	r2, r3
1a000e42:	4619      	mov	r1, r3
1a000e44:	4d0e      	ldr	r5, [pc, #56]	; (1a000e80 <Chip_UART_Init+0x4c>)
1a000e46:	f835 0010 	ldrh.w	r0, [r5, r0, lsl #1]
1a000e4a:	f7ff ff85 	bl	1a000d58 <Chip_Clock_EnableOpts>
1a000e4e:	2307      	movs	r3, #7
1a000e50:	60a3      	str	r3, [r4, #8]
1a000e52:	2300      	movs	r3, #0
1a000e54:	65e3      	str	r3, [r4, #92]	; 0x5c
1a000e56:	6063      	str	r3, [r4, #4]
1a000e58:	60e3      	str	r3, [r4, #12]
1a000e5a:	6223      	str	r3, [r4, #32]
1a000e5c:	64e3      	str	r3, [r4, #76]	; 0x4c
1a000e5e:	6563      	str	r3, [r4, #84]	; 0x54
1a000e60:	6523      	str	r3, [r4, #80]	; 0x50
1a000e62:	4b08      	ldr	r3, [pc, #32]	; (1a000e84 <Chip_UART_Init+0x50>)
1a000e64:	429c      	cmp	r4, r3
1a000e66:	d005      	beq.n	1a000e74 <Chip_UART_Init+0x40>
1a000e68:	2303      	movs	r3, #3
1a000e6a:	60e3      	str	r3, [r4, #12]
1a000e6c:	2310      	movs	r3, #16
1a000e6e:	62a3      	str	r3, [r4, #40]	; 0x28
1a000e70:	b003      	add	sp, #12
1a000e72:	bd30      	pop	{r4, r5, pc}
1a000e74:	2300      	movs	r3, #0
1a000e76:	6123      	str	r3, [r4, #16]
1a000e78:	69a3      	ldr	r3, [r4, #24]
1a000e7a:	9301      	str	r3, [sp, #4]
1a000e7c:	e7f4      	b.n	1a000e68 <Chip_UART_Init+0x34>
1a000e7e:	bf00      	nop
1a000e80:	1a002728 	.word	0x1a002728
1a000e84:	40082000 	.word	0x40082000

1a000e88 <Chip_UART_SetBaudFDR>:
1a000e88:	e92d 4ff0 	stmdb	sp!, {r4, r5, r6, r7, r8, r9, sl, fp, lr}
1a000e8c:	b083      	sub	sp, #12
1a000e8e:	9001      	str	r0, [sp, #4]
1a000e90:	4688      	mov	r8, r1
1a000e92:	f7ff ffb9 	bl	1a000e08 <Chip_UART_GetIndex>
1a000e96:	4b32      	ldr	r3, [pc, #200]	; (1a000f60 <Chip_UART_SetBaudFDR+0xd8>)
1a000e98:	f833 0010 	ldrh.w	r0, [r3, r0, lsl #1]
1a000e9c:	f7ff ff7a 	bl	1a000d94 <Chip_Clock_GetRate>
1a000ea0:	4606      	mov	r6, r0
1a000ea2:	f04f 37ff 	mov.w	r7, #4294967295
1a000ea6:	2401      	movs	r4, #1
1a000ea8:	f04f 0b00 	mov.w	fp, #0
1a000eac:	46a2      	mov	sl, r4
1a000eae:	46d9      	mov	r9, fp
1a000eb0:	e02a      	b.n	1a000f08 <Chip_UART_SetBaudFDR+0x80>
1a000eb2:	4242      	negs	r2, r0
1a000eb4:	1c4b      	adds	r3, r1, #1
1a000eb6:	e017      	b.n	1a000ee8 <Chip_UART_SetBaudFDR+0x60>
1a000eb8:	b30a      	cbz	r2, 1a000efe <Chip_UART_SetBaudFDR+0x76>
1a000eba:	4617      	mov	r7, r2
1a000ebc:	46ab      	mov	fp, r5
1a000ebe:	46a2      	mov	sl, r4
1a000ec0:	4699      	mov	r9, r3
1a000ec2:	3501      	adds	r5, #1
1a000ec4:	42ac      	cmp	r4, r5
1a000ec6:	d91e      	bls.n	1a000f06 <Chip_UART_SetBaudFDR+0x7e>
1a000ec8:	0933      	lsrs	r3, r6, #4
1a000eca:	0730      	lsls	r0, r6, #28
1a000ecc:	fba4 0100 	umull	r0, r1, r4, r0
1a000ed0:	fb04 1103 	mla	r1, r4, r3, r1
1a000ed4:	1962      	adds	r2, r4, r5
1a000ed6:	fb08 f202 	mul.w	r2, r8, r2
1a000eda:	2300      	movs	r3, #0
1a000edc:	f000 f9d0 	bl	1a001280 <__aeabi_uldivmod>
1a000ee0:	4602      	mov	r2, r0
1a000ee2:	460b      	mov	r3, r1
1a000ee4:	2800      	cmp	r0, #0
1a000ee6:	dbe4      	blt.n	1a000eb2 <Chip_UART_SetBaudFDR+0x2a>
1a000ee8:	4297      	cmp	r7, r2
1a000eea:	d3ea      	bcc.n	1a000ec2 <Chip_UART_SetBaudFDR+0x3a>
1a000eec:	2b00      	cmp	r3, #0
1a000eee:	d0e8      	beq.n	1a000ec2 <Chip_UART_SetBaudFDR+0x3a>
1a000ef0:	0c19      	lsrs	r1, r3, #16
1a000ef2:	d1e6      	bne.n	1a000ec2 <Chip_UART_SetBaudFDR+0x3a>
1a000ef4:	2b02      	cmp	r3, #2
1a000ef6:	d8df      	bhi.n	1a000eb8 <Chip_UART_SetBaudFDR+0x30>
1a000ef8:	2d00      	cmp	r5, #0
1a000efa:	d0dd      	beq.n	1a000eb8 <Chip_UART_SetBaudFDR+0x30>
1a000efc:	e7e1      	b.n	1a000ec2 <Chip_UART_SetBaudFDR+0x3a>
1a000efe:	4617      	mov	r7, r2
1a000f00:	46ab      	mov	fp, r5
1a000f02:	46a2      	mov	sl, r4
1a000f04:	4699      	mov	r9, r3
1a000f06:	3401      	adds	r4, #1
1a000f08:	b11f      	cbz	r7, 1a000f12 <Chip_UART_SetBaudFDR+0x8a>
1a000f0a:	2c0f      	cmp	r4, #15
1a000f0c:	d801      	bhi.n	1a000f12 <Chip_UART_SetBaudFDR+0x8a>
1a000f0e:	2500      	movs	r5, #0
1a000f10:	e7d8      	b.n	1a000ec4 <Chip_UART_SetBaudFDR+0x3c>
1a000f12:	f1b9 0f00 	cmp.w	r9, #0
1a000f16:	d01e      	beq.n	1a000f56 <Chip_UART_SetBaudFDR+0xce>
1a000f18:	9a01      	ldr	r2, [sp, #4]
1a000f1a:	4611      	mov	r1, r2
1a000f1c:	68d3      	ldr	r3, [r2, #12]
1a000f1e:	f043 0380 	orr.w	r3, r3, #128	; 0x80
1a000f22:	60d3      	str	r3, [r2, #12]
1a000f24:	fa5f f389 	uxtb.w	r3, r9
1a000f28:	6013      	str	r3, [r2, #0]
1a000f2a:	f3c9 2307 	ubfx	r3, r9, #8, #8
1a000f2e:	6053      	str	r3, [r2, #4]
1a000f30:	68d3      	ldr	r3, [r2, #12]
1a000f32:	f023 0380 	bic.w	r3, r3, #128	; 0x80
1a000f36:	60d3      	str	r3, [r2, #12]
1a000f38:	ea4f 130a 	mov.w	r3, sl, lsl #4
1a000f3c:	b2db      	uxtb	r3, r3
1a000f3e:	f00b 020f 	and.w	r2, fp, #15
1a000f42:	4313      	orrs	r3, r2
1a000f44:	628b      	str	r3, [r1, #40]	; 0x28
1a000f46:	0933      	lsrs	r3, r6, #4
1a000f48:	fb0a f303 	mul.w	r3, sl, r3
1a000f4c:	44da      	add	sl, fp
1a000f4e:	fb09 f90a 	mul.w	r9, r9, sl
1a000f52:	fbb3 f9f9 	udiv	r9, r3, r9
1a000f56:	4648      	mov	r0, r9
1a000f58:	b003      	add	sp, #12
1a000f5a:	e8bd 8ff0 	ldmia.w	sp!, {r4, r5, r6, r7, r8, r9, sl, fp, pc}
1a000f5e:	bf00      	nop
1a000f60:	1a002720 	.word	0x1a002720

1a000f64 <SystemInit>:
1a000f64:	b508      	push	{r3, lr}
1a000f66:	f7ff fc61 	bl	1a00082c <fpuInit>
1a000f6a:	f000 f8a3 	bl	1a0010b4 <Board_SystemInit>
1a000f6e:	bd08      	pop	{r3, pc}

1a000f70 <_close_r>:
1a000f70:	2309      	movs	r3, #9
1a000f72:	6003      	str	r3, [r0, #0]
1a000f74:	f04f 30ff 	mov.w	r0, #4294967295
1a000f78:	4770      	bx	lr

1a000f7a <_fstat_r>:
1a000f7a:	2358      	movs	r3, #88	; 0x58
1a000f7c:	6003      	str	r3, [r0, #0]
1a000f7e:	f04f 30ff 	mov.w	r0, #4294967295
1a000f82:	4770      	bx	lr

1a000f84 <_isatty_r>:
1a000f84:	2902      	cmp	r1, #2
1a000f86:	d904      	bls.n	1a000f92 <_isatty_r+0xe>
1a000f88:	2309      	movs	r3, #9
1a000f8a:	6003      	str	r3, [r0, #0]
1a000f8c:	f04f 30ff 	mov.w	r0, #4294967295
1a000f90:	4770      	bx	lr
1a000f92:	2001      	movs	r0, #1
1a000f94:	4770      	bx	lr

1a000f96 <_lseek_r>:
1a000f96:	2358      	movs	r3, #88	; 0x58
1a000f98:	6003      	str	r3, [r0, #0]
1a000f9a:	f04f 30ff 	mov.w	r0, #4294967295
1a000f9e:	4770      	bx	lr

1a000fa0 <_read_r>:
1a000fa0:	2902      	cmp	r1, #2
1a000fa2:	d80c      	bhi.n	1a000fbe <_read_r+0x1e>
1a000fa4:	b570      	push	{r4, r5, r6, lr}
1a000fa6:	461d      	mov	r5, r3
1a000fa8:	4616      	mov	r6, r2
1a000faa:	2400      	movs	r4, #0
1a000fac:	42ac      	cmp	r4, r5
1a000fae:	d204      	bcs.n	1a000fba <_read_r+0x1a>
1a000fb0:	f000 f90e 	bl	1a0011d0 <Board_UARTGetChar>
1a000fb4:	5530      	strb	r0, [r6, r4]
1a000fb6:	3401      	adds	r4, #1
1a000fb8:	e7f8      	b.n	1a000fac <_read_r+0xc>
1a000fba:	4628      	mov	r0, r5
1a000fbc:	bd70      	pop	{r4, r5, r6, pc}
1a000fbe:	2313      	movs	r3, #19
1a000fc0:	6003      	str	r3, [r0, #0]
1a000fc2:	f04f 30ff 	mov.w	r0, #4294967295
1a000fc6:	4770      	bx	lr

1a000fc8 <_sbrk_r>:
1a000fc8:	4b05      	ldr	r3, [pc, #20]	; (1a000fe0 <_sbrk_r+0x18>)
1a000fca:	681b      	ldr	r3, [r3, #0]
1a000fcc:	b123      	cbz	r3, 1a000fd8 <_sbrk_r+0x10>
1a000fce:	4b04      	ldr	r3, [pc, #16]	; (1a000fe0 <_sbrk_r+0x18>)
1a000fd0:	6818      	ldr	r0, [r3, #0]
1a000fd2:	4401      	add	r1, r0
1a000fd4:	6019      	str	r1, [r3, #0]
1a000fd6:	4770      	bx	lr
1a000fd8:	4b01      	ldr	r3, [pc, #4]	; (1a000fe0 <_sbrk_r+0x18>)
1a000fda:	4a02      	ldr	r2, [pc, #8]	; (1a000fe4 <_sbrk_r+0x1c>)
1a000fdc:	601a      	str	r2, [r3, #0]
1a000fde:	e7f6      	b.n	1a000fce <_sbrk_r+0x6>
1a000fe0:	1000018c 	.word	0x1000018c
1a000fe4:	100001a8 	.word	0x100001a8

1a000fe8 <_write_r>:
1a000fe8:	2902      	cmp	r1, #2
1a000fea:	d80c      	bhi.n	1a001006 <_write_r+0x1e>
1a000fec:	b570      	push	{r4, r5, r6, lr}
1a000fee:	461d      	mov	r5, r3
1a000ff0:	4616      	mov	r6, r2
1a000ff2:	2400      	movs	r4, #0
1a000ff4:	42ac      	cmp	r4, r5
1a000ff6:	d204      	bcs.n	1a001002 <_write_r+0x1a>
1a000ff8:	5d30      	ldrb	r0, [r6, r4]
1a000ffa:	f000 f8df 	bl	1a0011bc <Board_UARTPutChar>
1a000ffe:	3401      	adds	r4, #1
1a001000:	e7f8      	b.n	1a000ff4 <_write_r+0xc>
1a001002:	4628      	mov	r0, r5
1a001004:	bd70      	pop	{r4, r5, r6, pc}
1a001006:	2313      	movs	r3, #19
1a001008:	6003      	str	r3, [r0, #0]
1a00100a:	f04f 30ff 	mov.w	r0, #4294967295
1a00100e:	4770      	bx	lr

1a001010 <Board_SetupMuxing>:
1a001010:	2300      	movs	r3, #0
1a001012:	2b17      	cmp	r3, #23
1a001014:	d812      	bhi.n	1a00103c <Board_SetupMuxing+0x2c>
1a001016:	b410      	push	{r4}
1a001018:	4a09      	ldr	r2, [pc, #36]	; (1a001040 <Board_SetupMuxing+0x30>)
1a00101a:	eb02 0183 	add.w	r1, r2, r3, lsl #2
1a00101e:	f812 4023 	ldrb.w	r4, [r2, r3, lsl #2]
1a001022:	784a      	ldrb	r2, [r1, #1]
1a001024:	8848      	ldrh	r0, [r1, #2]
1a001026:	eb02 1244 	add.w	r2, r2, r4, lsl #5
1a00102a:	4906      	ldr	r1, [pc, #24]	; (1a001044 <Board_SetupMuxing+0x34>)
1a00102c:	f841 0022 	str.w	r0, [r1, r2, lsl #2]
1a001030:	3301      	adds	r3, #1
1a001032:	2b17      	cmp	r3, #23
1a001034:	d9f0      	bls.n	1a001018 <Board_SetupMuxing+0x8>
1a001036:	f85d 4b04 	ldr.w	r4, [sp], #4
1a00103a:	4770      	bx	lr
1a00103c:	4770      	bx	lr
1a00103e:	bf00      	nop
1a001040:	1a00273c 	.word	0x1a00273c
1a001044:	40086000 	.word	0x40086000

1a001048 <Board_SetupClocking>:
1a001048:	b510      	push	{r4, lr}
1a00104a:	4a17      	ldr	r2, [pc, #92]	; (1a0010a8 <Board_SetupClocking+0x60>)
1a00104c:	f8d2 3120 	ldr.w	r3, [r2, #288]	; 0x120
1a001050:	f423 4370 	bic.w	r3, r3, #61440	; 0xf000
1a001054:	f443 4310 	orr.w	r3, r3, #36864	; 0x9000
1a001058:	f8c2 3120 	str.w	r3, [r2, #288]	; 0x120
1a00105c:	f8d2 3124 	ldr.w	r3, [r2, #292]	; 0x124
1a001060:	f423 4370 	bic.w	r3, r3, #61440	; 0xf000
1a001064:	f443 4310 	orr.w	r3, r3, #36864	; 0x9000
1a001068:	f8c2 3124 	str.w	r3, [r2, #292]	; 0x124
1a00106c:	2201      	movs	r2, #1
1a00106e:	490f      	ldr	r1, [pc, #60]	; (1a0010ac <Board_SetupClocking+0x64>)
1a001070:	2006      	movs	r0, #6
1a001072:	f7ff fb2f 	bl	1a0006d4 <Chip_SetupCoreClock>
1a001076:	2400      	movs	r4, #0
1a001078:	2c02      	cmp	r4, #2
1a00107a:	d80b      	bhi.n	1a001094 <Board_SetupClocking+0x4c>
1a00107c:	480c      	ldr	r0, [pc, #48]	; (1a0010b0 <Board_SetupClocking+0x68>)
1a00107e:	eb00 0184 	add.w	r1, r0, r4, lsl #2
1a001082:	78cb      	ldrb	r3, [r1, #3]
1a001084:	788a      	ldrb	r2, [r1, #2]
1a001086:	7849      	ldrb	r1, [r1, #1]
1a001088:	f810 0024 	ldrb.w	r0, [r0, r4, lsl #2]
1a00108c:	f7ff fe1e 	bl	1a000ccc <Chip_Clock_SetBaseClock>
1a001090:	3401      	adds	r4, #1
1a001092:	e7f1      	b.n	1a001078 <Board_SetupClocking+0x30>
1a001094:	4b04      	ldr	r3, [pc, #16]	; (1a0010a8 <Board_SetupClocking+0x60>)
1a001096:	685a      	ldr	r2, [r3, #4]
1a001098:	f022 020c 	bic.w	r2, r2, #12
1a00109c:	605a      	str	r2, [r3, #4]
1a00109e:	685a      	ldr	r2, [r3, #4]
1a0010a0:	f042 0203 	orr.w	r2, r2, #3
1a0010a4:	605a      	str	r2, [r3, #4]
1a0010a6:	bd10      	pop	{r4, pc}
1a0010a8:	40043000 	.word	0x40043000
1a0010ac:	0c28cb00 	.word	0x0c28cb00
1a0010b0:	1a002730 	.word	0x1a002730

1a0010b4 <Board_SystemInit>:
1a0010b4:	b508      	push	{r3, lr}
1a0010b6:	f7ff ffab 	bl	1a001010 <Board_SetupMuxing>
1a0010ba:	f7ff ffc5 	bl	1a001048 <Board_SetupClocking>
1a0010be:	bd08      	pop	{r3, pc}

1a0010c0 <ResetISR>:
1a0010c0:	b510      	push	{r4, lr}
1a0010c2:	b672      	cpsid	i
1a0010c4:	4b16      	ldr	r3, [pc, #88]	; (1a001120 <ResetISR+0x60>)
1a0010c6:	4a17      	ldr	r2, [pc, #92]	; (1a001124 <ResetISR+0x64>)
1a0010c8:	601a      	str	r2, [r3, #0]
1a0010ca:	3304      	adds	r3, #4
1a0010cc:	4a16      	ldr	r2, [pc, #88]	; (1a001128 <ResetISR+0x68>)
1a0010ce:	601a      	str	r2, [r3, #0]
1a0010d0:	2300      	movs	r3, #0
1a0010d2:	e005      	b.n	1a0010e0 <ResetISR+0x20>
1a0010d4:	4a15      	ldr	r2, [pc, #84]	; (1a00112c <ResetISR+0x6c>)
1a0010d6:	f04f 31ff 	mov.w	r1, #4294967295
1a0010da:	f842 1023 	str.w	r1, [r2, r3, lsl #2]
1a0010de:	3301      	adds	r3, #1
1a0010e0:	2b07      	cmp	r3, #7
1a0010e2:	d9f7      	bls.n	1a0010d4 <ResetISR+0x14>
1a0010e4:	b662      	cpsie	i
1a0010e6:	f7ff ff3d 	bl	1a000f64 <SystemInit>
1a0010ea:	4b11      	ldr	r3, [pc, #68]	; (1a001130 <ResetISR+0x70>)
1a0010ec:	e007      	b.n	1a0010fe <ResetISR+0x3e>
1a0010ee:	f103 040c 	add.w	r4, r3, #12
1a0010f2:	689a      	ldr	r2, [r3, #8]
1a0010f4:	6859      	ldr	r1, [r3, #4]
1a0010f6:	6818      	ldr	r0, [r3, #0]
1a0010f8:	f7ff f848 	bl	1a00018c <data_init>
1a0010fc:	4623      	mov	r3, r4
1a0010fe:	4a0d      	ldr	r2, [pc, #52]	; (1a001134 <ResetISR+0x74>)
1a001100:	4293      	cmp	r3, r2
1a001102:	d3f4      	bcc.n	1a0010ee <ResetISR+0x2e>
1a001104:	e006      	b.n	1a001114 <ResetISR+0x54>
1a001106:	461c      	mov	r4, r3
1a001108:	6859      	ldr	r1, [r3, #4]
1a00110a:	f854 0b08 	ldr.w	r0, [r4], #8
1a00110e:	f7ff f84c 	bl	1a0001aa <bss_init>
1a001112:	4623      	mov	r3, r4
1a001114:	4a08      	ldr	r2, [pc, #32]	; (1a001138 <ResetISR+0x78>)
1a001116:	4293      	cmp	r3, r2
1a001118:	d3f5      	bcc.n	1a001106 <ResetISR+0x46>
1a00111a:	f7ff fa37 	bl	1a00058c <main>
1a00111e:	e7fe      	b.n	1a00111e <ResetISR+0x5e>
1a001120:	40053100 	.word	0x40053100
1a001124:	10df1000 	.word	0x10df1000
1a001128:	01dff7ff 	.word	0x01dff7ff
1a00112c:	e000e280 	.word	0xe000e280
1a001130:	1a000114 	.word	0x1a000114
1a001134:	1a000150 	.word	0x1a000150
1a001138:	1a000178 	.word	0x1a000178

1a00113c <Board_LED_Init>:
1a00113c:	2200      	movs	r2, #0
1a00113e:	2a05      	cmp	r2, #5
1a001140:	d819      	bhi.n	1a001176 <Board_LED_Init+0x3a>
1a001142:	b470      	push	{r4, r5, r6}
1a001144:	490c      	ldr	r1, [pc, #48]	; (1a001178 <Board_LED_Init+0x3c>)
1a001146:	f811 5012 	ldrb.w	r5, [r1, r2, lsl #1]
1a00114a:	eb01 0142 	add.w	r1, r1, r2, lsl #1
1a00114e:	784c      	ldrb	r4, [r1, #1]
1a001150:	4b0a      	ldr	r3, [pc, #40]	; (1a00117c <Board_LED_Init+0x40>)
1a001152:	f505 6600 	add.w	r6, r5, #2048	; 0x800
1a001156:	f853 1026 	ldr.w	r1, [r3, r6, lsl #2]
1a00115a:	2001      	movs	r0, #1
1a00115c:	40a0      	lsls	r0, r4
1a00115e:	4301      	orrs	r1, r0
1a001160:	f843 1026 	str.w	r1, [r3, r6, lsl #2]
1a001164:	eb03 1345 	add.w	r3, r3, r5, lsl #5
1a001168:	2100      	movs	r1, #0
1a00116a:	5519      	strb	r1, [r3, r4]
1a00116c:	3201      	adds	r2, #1
1a00116e:	2a05      	cmp	r2, #5
1a001170:	d9e8      	bls.n	1a001144 <Board_LED_Init+0x8>
1a001172:	bc70      	pop	{r4, r5, r6}
1a001174:	4770      	bx	lr
1a001176:	4770      	bx	lr
1a001178:	1a0027a4 	.word	0x1a0027a4
1a00117c:	400f4000 	.word	0x400f4000

1a001180 <Board_UART_Init>:
1a001180:	4b03      	ldr	r3, [pc, #12]	; (1a001190 <Board_UART_Init+0x10>)
1a001182:	2212      	movs	r2, #18
1a001184:	f8c3 2310 	str.w	r2, [r3, #784]	; 0x310
1a001188:	22d1      	movs	r2, #209	; 0xd1
1a00118a:	f8c3 2104 	str.w	r2, [r3, #260]	; 0x104
1a00118e:	4770      	bx	lr
1a001190:	40086000 	.word	0x40086000

1a001194 <Board_Debug_Init>:
1a001194:	b510      	push	{r4, lr}
1a001196:	4c08      	ldr	r4, [pc, #32]	; (1a0011b8 <Board_Debug_Init+0x24>)
1a001198:	4620      	mov	r0, r4
1a00119a:	f7ff fff1 	bl	1a001180 <Board_UART_Init>
1a00119e:	4620      	mov	r0, r4
1a0011a0:	f7ff fe48 	bl	1a000e34 <Chip_UART_Init>
1a0011a4:	f44f 31e1 	mov.w	r1, #115200	; 0x1c200
1a0011a8:	4620      	mov	r0, r4
1a0011aa:	f7ff fe6d 	bl	1a000e88 <Chip_UART_SetBaudFDR>
1a0011ae:	2303      	movs	r3, #3
1a0011b0:	60e3      	str	r3, [r4, #12]
1a0011b2:	2301      	movs	r3, #1
1a0011b4:	65e3      	str	r3, [r4, #92]	; 0x5c
1a0011b6:	bd10      	pop	{r4, pc}
1a0011b8:	400c1000 	.word	0x400c1000

1a0011bc <Board_UARTPutChar>:
1a0011bc:	4b03      	ldr	r3, [pc, #12]	; (1a0011cc <Board_UARTPutChar+0x10>)
1a0011be:	695b      	ldr	r3, [r3, #20]
1a0011c0:	f013 0f20 	tst.w	r3, #32
1a0011c4:	d0fa      	beq.n	1a0011bc <Board_UARTPutChar>
1a0011c6:	4b01      	ldr	r3, [pc, #4]	; (1a0011cc <Board_UARTPutChar+0x10>)
1a0011c8:	6018      	str	r0, [r3, #0]
1a0011ca:	4770      	bx	lr
1a0011cc:	400c1000 	.word	0x400c1000

1a0011d0 <Board_UARTGetChar>:
1a0011d0:	4b05      	ldr	r3, [pc, #20]	; (1a0011e8 <Board_UARTGetChar+0x18>)
1a0011d2:	695b      	ldr	r3, [r3, #20]
1a0011d4:	f013 0f01 	tst.w	r3, #1
1a0011d8:	d003      	beq.n	1a0011e2 <Board_UARTGetChar+0x12>
1a0011da:	4b03      	ldr	r3, [pc, #12]	; (1a0011e8 <Board_UARTGetChar+0x18>)
1a0011dc:	6818      	ldr	r0, [r3, #0]
1a0011de:	b2c0      	uxtb	r0, r0
1a0011e0:	4770      	bx	lr
1a0011e2:	f04f 30ff 	mov.w	r0, #4294967295
1a0011e6:	4770      	bx	lr
1a0011e8:	400c1000 	.word	0x400c1000

1a0011ec <Board_LED_Set>:
1a0011ec:	2805      	cmp	r0, #5
1a0011ee:	d80d      	bhi.n	1a00120c <Board_LED_Set+0x20>
1a0011f0:	4a07      	ldr	r2, [pc, #28]	; (1a001210 <Board_LED_Set+0x24>)
1a0011f2:	f812 3010 	ldrb.w	r3, [r2, r0, lsl #1]
1a0011f6:	eb02 0040 	add.w	r0, r2, r0, lsl #1
1a0011fa:	7842      	ldrb	r2, [r0, #1]
1a0011fc:	f081 0101 	eor.w	r1, r1, #1
1a001200:	015b      	lsls	r3, r3, #5
1a001202:	f103 2340 	add.w	r3, r3, #1073758208	; 0x40004000
1a001206:	f503 2370 	add.w	r3, r3, #983040	; 0xf0000
1a00120a:	5499      	strb	r1, [r3, r2]
1a00120c:	4770      	bx	lr
1a00120e:	bf00      	nop
1a001210:	1a0027a4 	.word	0x1a0027a4

1a001214 <Board_LED_Test>:
1a001214:	2805      	cmp	r0, #5
1a001216:	d901      	bls.n	1a00121c <Board_LED_Test+0x8>
1a001218:	2000      	movs	r0, #0
1a00121a:	4770      	bx	lr
1a00121c:	4a07      	ldr	r2, [pc, #28]	; (1a00123c <Board_LED_Test+0x28>)
1a00121e:	f812 3010 	ldrb.w	r3, [r2, r0, lsl #1]
1a001222:	eb02 0040 	add.w	r0, r2, r0, lsl #1
1a001226:	7842      	ldrb	r2, [r0, #1]
1a001228:	015b      	lsls	r3, r3, #5
1a00122a:	f103 2340 	add.w	r3, r3, #1073758208	; 0x40004000
1a00122e:	f503 2370 	add.w	r3, r3, #983040	; 0xf0000
1a001232:	5c98      	ldrb	r0, [r3, r2]
1a001234:	fab0 f080 	clz	r0, r0
1a001238:	0940      	lsrs	r0, r0, #5
1a00123a:	4770      	bx	lr
1a00123c:	1a0027a4 	.word	0x1a0027a4

1a001240 <Board_LED_Toggle>:
1a001240:	b510      	push	{r4, lr}
1a001242:	4604      	mov	r4, r0
1a001244:	f7ff ffe6 	bl	1a001214 <Board_LED_Test>
1a001248:	f080 0101 	eor.w	r1, r0, #1
1a00124c:	b2c9      	uxtb	r1, r1
1a00124e:	4620      	mov	r0, r4
1a001250:	f7ff ffcc 	bl	1a0011ec <Board_LED_Set>
1a001254:	bd10      	pop	{r4, pc}
1a001256:	Address 0x1a001256 is out of bounds.


1a001258 <Board_Init>:
1a001258:	b508      	push	{r3, lr}
1a00125a:	f7ff ff9b 	bl	1a001194 <Board_Debug_Init>
1a00125e:	4806      	ldr	r0, [pc, #24]	; (1a001278 <Board_Init+0x20>)
1a001260:	f7ff fdbe 	bl	1a000de0 <Chip_GPIO_Init>
1a001264:	f7ff ff6a 	bl	1a00113c <Board_LED_Init>
1a001268:	4a04      	ldr	r2, [pc, #16]	; (1a00127c <Board_Init+0x24>)
1a00126a:	f8d2 312c 	ldr.w	r3, [r2, #300]	; 0x12c
1a00126e:	f043 0304 	orr.w	r3, r3, #4
1a001272:	f8c2 312c 	str.w	r3, [r2, #300]	; 0x12c
1a001276:	bd08      	pop	{r3, pc}
1a001278:	400f4000 	.word	0x400f4000
1a00127c:	40043000 	.word	0x40043000

1a001280 <__aeabi_uldivmod>:
1a001280:	b953      	cbnz	r3, 1a001298 <__aeabi_uldivmod+0x18>
1a001282:	b94a      	cbnz	r2, 1a001298 <__aeabi_uldivmod+0x18>
1a001284:	2900      	cmp	r1, #0
1a001286:	bf08      	it	eq
1a001288:	2800      	cmpeq	r0, #0
1a00128a:	bf1c      	itt	ne
1a00128c:	f04f 31ff 	movne.w	r1, #4294967295
1a001290:	f04f 30ff 	movne.w	r0, #4294967295
1a001294:	f000 b974 	b.w	1a001580 <__aeabi_idiv0>
1a001298:	f1ad 0c08 	sub.w	ip, sp, #8
1a00129c:	e96d ce04 	strd	ip, lr, [sp, #-16]!
1a0012a0:	f000 f806 	bl	1a0012b0 <__udivmoddi4>
1a0012a4:	f8dd e004 	ldr.w	lr, [sp, #4]
1a0012a8:	e9dd 2302 	ldrd	r2, r3, [sp, #8]
1a0012ac:	b004      	add	sp, #16
1a0012ae:	4770      	bx	lr

1a0012b0 <__udivmoddi4>:
1a0012b0:	e92d 47f0 	stmdb	sp!, {r4, r5, r6, r7, r8, r9, sl, lr}
1a0012b4:	9e08      	ldr	r6, [sp, #32]
1a0012b6:	4604      	mov	r4, r0
1a0012b8:	4688      	mov	r8, r1
1a0012ba:	2b00      	cmp	r3, #0
1a0012bc:	f040 8085 	bne.w	1a0013ca <__udivmoddi4+0x11a>
1a0012c0:	428a      	cmp	r2, r1
1a0012c2:	4615      	mov	r5, r2
1a0012c4:	d948      	bls.n	1a001358 <__udivmoddi4+0xa8>
1a0012c6:	fab2 f282 	clz	r2, r2
1a0012ca:	b14a      	cbz	r2, 1a0012e0 <__udivmoddi4+0x30>
1a0012cc:	f1c2 0720 	rsb	r7, r2, #32
1a0012d0:	fa01 f302 	lsl.w	r3, r1, r2
1a0012d4:	fa20 f707 	lsr.w	r7, r0, r7
1a0012d8:	4095      	lsls	r5, r2
1a0012da:	ea47 0803 	orr.w	r8, r7, r3
1a0012de:	4094      	lsls	r4, r2
1a0012e0:	ea4f 4e15 	mov.w	lr, r5, lsr #16
1a0012e4:	0c23      	lsrs	r3, r4, #16
1a0012e6:	fbb8 f7fe 	udiv	r7, r8, lr
1a0012ea:	fa1f fc85 	uxth.w	ip, r5
1a0012ee:	fb0e 8817 	mls	r8, lr, r7, r8
1a0012f2:	ea43 4308 	orr.w	r3, r3, r8, lsl #16
1a0012f6:	fb07 f10c 	mul.w	r1, r7, ip
1a0012fa:	4299      	cmp	r1, r3
1a0012fc:	d909      	bls.n	1a001312 <__udivmoddi4+0x62>
1a0012fe:	18eb      	adds	r3, r5, r3
1a001300:	f107 30ff 	add.w	r0, r7, #4294967295
1a001304:	f080 80e3 	bcs.w	1a0014ce <__udivmoddi4+0x21e>
1a001308:	4299      	cmp	r1, r3
1a00130a:	f240 80e0 	bls.w	1a0014ce <__udivmoddi4+0x21e>
1a00130e:	3f02      	subs	r7, #2
1a001310:	442b      	add	r3, r5
1a001312:	1a5b      	subs	r3, r3, r1
1a001314:	b2a4      	uxth	r4, r4
1a001316:	fbb3 f0fe 	udiv	r0, r3, lr
1a00131a:	fb0e 3310 	mls	r3, lr, r0, r3
1a00131e:	ea44 4403 	orr.w	r4, r4, r3, lsl #16
1a001322:	fb00 fc0c 	mul.w	ip, r0, ip
1a001326:	45a4      	cmp	ip, r4
1a001328:	d909      	bls.n	1a00133e <__udivmoddi4+0x8e>
1a00132a:	192c      	adds	r4, r5, r4
1a00132c:	f100 33ff 	add.w	r3, r0, #4294967295
1a001330:	f080 80cb 	bcs.w	1a0014ca <__udivmoddi4+0x21a>
1a001334:	45a4      	cmp	ip, r4
1a001336:	f240 80c8 	bls.w	1a0014ca <__udivmoddi4+0x21a>
1a00133a:	3802      	subs	r0, #2
1a00133c:	442c      	add	r4, r5
1a00133e:	ea40 4007 	orr.w	r0, r0, r7, lsl #16
1a001342:	eba4 040c 	sub.w	r4, r4, ip
1a001346:	2700      	movs	r7, #0
1a001348:	b11e      	cbz	r6, 1a001352 <__udivmoddi4+0xa2>
1a00134a:	40d4      	lsrs	r4, r2
1a00134c:	2300      	movs	r3, #0
1a00134e:	e9c6 4300 	strd	r4, r3, [r6]
1a001352:	4639      	mov	r1, r7
1a001354:	e8bd 87f0 	ldmia.w	sp!, {r4, r5, r6, r7, r8, r9, sl, pc}
1a001358:	2a00      	cmp	r2, #0
1a00135a:	d053      	beq.n	1a001404 <__udivmoddi4+0x154>
1a00135c:	fab2 f282 	clz	r2, r2
1a001360:	2a00      	cmp	r2, #0
1a001362:	f040 80b6 	bne.w	1a0014d2 <__udivmoddi4+0x222>
1a001366:	1b49      	subs	r1, r1, r5
1a001368:	ea4f 4e15 	mov.w	lr, r5, lsr #16
1a00136c:	fa1f f885 	uxth.w	r8, r5
1a001370:	2701      	movs	r7, #1
1a001372:	fbb1 fcfe 	udiv	ip, r1, lr
1a001376:	0c23      	lsrs	r3, r4, #16
1a001378:	fb0e 111c 	mls	r1, lr, ip, r1
1a00137c:	ea43 4301 	orr.w	r3, r3, r1, lsl #16
1a001380:	fb08 f10c 	mul.w	r1, r8, ip
1a001384:	4299      	cmp	r1, r3
1a001386:	d907      	bls.n	1a001398 <__udivmoddi4+0xe8>
1a001388:	18eb      	adds	r3, r5, r3
1a00138a:	f10c 30ff 	add.w	r0, ip, #4294967295
1a00138e:	d202      	bcs.n	1a001396 <__udivmoddi4+0xe6>
1a001390:	4299      	cmp	r1, r3
1a001392:	f200 80ec 	bhi.w	1a00156e <__udivmoddi4+0x2be>
1a001396:	4684      	mov	ip, r0
1a001398:	1a59      	subs	r1, r3, r1
1a00139a:	b2a3      	uxth	r3, r4
1a00139c:	fbb1 f0fe 	udiv	r0, r1, lr
1a0013a0:	fb0e 1410 	mls	r4, lr, r0, r1
1a0013a4:	ea43 4404 	orr.w	r4, r3, r4, lsl #16
1a0013a8:	fb08 f800 	mul.w	r8, r8, r0
1a0013ac:	45a0      	cmp	r8, r4
1a0013ae:	d907      	bls.n	1a0013c0 <__udivmoddi4+0x110>
1a0013b0:	192c      	adds	r4, r5, r4
1a0013b2:	f100 33ff 	add.w	r3, r0, #4294967295
1a0013b6:	d202      	bcs.n	1a0013be <__udivmoddi4+0x10e>
1a0013b8:	45a0      	cmp	r8, r4
1a0013ba:	f200 80dc 	bhi.w	1a001576 <__udivmoddi4+0x2c6>
1a0013be:	4618      	mov	r0, r3
1a0013c0:	eba4 0408 	sub.w	r4, r4, r8
1a0013c4:	ea40 400c 	orr.w	r0, r0, ip, lsl #16
1a0013c8:	e7be      	b.n	1a001348 <__udivmoddi4+0x98>
1a0013ca:	428b      	cmp	r3, r1
1a0013cc:	d908      	bls.n	1a0013e0 <__udivmoddi4+0x130>
1a0013ce:	2e00      	cmp	r6, #0
1a0013d0:	d078      	beq.n	1a0014c4 <__udivmoddi4+0x214>
1a0013d2:	2700      	movs	r7, #0
1a0013d4:	e9c6 0100 	strd	r0, r1, [r6]
1a0013d8:	4638      	mov	r0, r7
1a0013da:	4639      	mov	r1, r7
1a0013dc:	e8bd 87f0 	ldmia.w	sp!, {r4, r5, r6, r7, r8, r9, sl, pc}
1a0013e0:	fab3 f783 	clz	r7, r3
1a0013e4:	b97f      	cbnz	r7, 1a001406 <__udivmoddi4+0x156>
1a0013e6:	428b      	cmp	r3, r1
1a0013e8:	d302      	bcc.n	1a0013f0 <__udivmoddi4+0x140>
1a0013ea:	4282      	cmp	r2, r0
1a0013ec:	f200 80bd 	bhi.w	1a00156a <__udivmoddi4+0x2ba>
1a0013f0:	1a84      	subs	r4, r0, r2
1a0013f2:	eb61 0303 	sbc.w	r3, r1, r3
1a0013f6:	2001      	movs	r0, #1
1a0013f8:	4698      	mov	r8, r3
1a0013fa:	2e00      	cmp	r6, #0
1a0013fc:	d0a9      	beq.n	1a001352 <__udivmoddi4+0xa2>
1a0013fe:	e9c6 4800 	strd	r4, r8, [r6]
1a001402:	e7a6      	b.n	1a001352 <__udivmoddi4+0xa2>
1a001404:	deff      	udf	#255	; 0xff
1a001406:	f1c7 0520 	rsb	r5, r7, #32
1a00140a:	40bb      	lsls	r3, r7
1a00140c:	fa22 fc05 	lsr.w	ip, r2, r5
1a001410:	ea4c 0c03 	orr.w	ip, ip, r3
1a001414:	fa01 f407 	lsl.w	r4, r1, r7
1a001418:	fa20 f805 	lsr.w	r8, r0, r5
1a00141c:	fa21 f305 	lsr.w	r3, r1, r5
1a001420:	ea4f 4e1c 	mov.w	lr, ip, lsr #16
1a001424:	ea48 0404 	orr.w	r4, r8, r4
1a001428:	fbb3 f9fe 	udiv	r9, r3, lr
1a00142c:	0c21      	lsrs	r1, r4, #16
1a00142e:	fb0e 3319 	mls	r3, lr, r9, r3
1a001432:	fa1f f88c 	uxth.w	r8, ip
1a001436:	ea41 4303 	orr.w	r3, r1, r3, lsl #16
1a00143a:	fb09 fa08 	mul.w	sl, r9, r8
1a00143e:	459a      	cmp	sl, r3
1a001440:	fa02 f207 	lsl.w	r2, r2, r7
1a001444:	fa00 f107 	lsl.w	r1, r0, r7
1a001448:	d90b      	bls.n	1a001462 <__udivmoddi4+0x1b2>
1a00144a:	eb1c 0303 	adds.w	r3, ip, r3
1a00144e:	f109 30ff 	add.w	r0, r9, #4294967295
1a001452:	f080 8088 	bcs.w	1a001566 <__udivmoddi4+0x2b6>
1a001456:	459a      	cmp	sl, r3
1a001458:	f240 8085 	bls.w	1a001566 <__udivmoddi4+0x2b6>
1a00145c:	f1a9 0902 	sub.w	r9, r9, #2
1a001460:	4463      	add	r3, ip
1a001462:	eba3 030a 	sub.w	r3, r3, sl
1a001466:	b2a4      	uxth	r4, r4
1a001468:	fbb3 f0fe 	udiv	r0, r3, lr
1a00146c:	fb0e 3310 	mls	r3, lr, r0, r3
1a001470:	ea44 4403 	orr.w	r4, r4, r3, lsl #16
1a001474:	fb00 f808 	mul.w	r8, r0, r8
1a001478:	45a0      	cmp	r8, r4
1a00147a:	d908      	bls.n	1a00148e <__udivmoddi4+0x1de>
1a00147c:	eb1c 0404 	adds.w	r4, ip, r4
1a001480:	f100 33ff 	add.w	r3, r0, #4294967295
1a001484:	d26b      	bcs.n	1a00155e <__udivmoddi4+0x2ae>
1a001486:	45a0      	cmp	r8, r4
1a001488:	d969      	bls.n	1a00155e <__udivmoddi4+0x2ae>
1a00148a:	3802      	subs	r0, #2
1a00148c:	4464      	add	r4, ip
1a00148e:	ea40 4009 	orr.w	r0, r0, r9, lsl #16
1a001492:	eba4 0408 	sub.w	r4, r4, r8
1a001496:	fba0 8902 	umull	r8, r9, r0, r2
1a00149a:	454c      	cmp	r4, r9
1a00149c:	46c6      	mov	lr, r8
1a00149e:	464b      	mov	r3, r9
1a0014a0:	d354      	bcc.n	1a00154c <__udivmoddi4+0x29c>
1a0014a2:	d051      	beq.n	1a001548 <__udivmoddi4+0x298>
1a0014a4:	2e00      	cmp	r6, #0
1a0014a6:	d069      	beq.n	1a00157c <__udivmoddi4+0x2cc>
1a0014a8:	ebb1 020e 	subs.w	r2, r1, lr
1a0014ac:	eb64 0403 	sbc.w	r4, r4, r3
1a0014b0:	fa04 f505 	lsl.w	r5, r4, r5
1a0014b4:	fa22 f307 	lsr.w	r3, r2, r7
1a0014b8:	40fc      	lsrs	r4, r7
1a0014ba:	431d      	orrs	r5, r3
1a0014bc:	e9c6 5400 	strd	r5, r4, [r6]
1a0014c0:	2700      	movs	r7, #0
1a0014c2:	e746      	b.n	1a001352 <__udivmoddi4+0xa2>
1a0014c4:	4637      	mov	r7, r6
1a0014c6:	4630      	mov	r0, r6
1a0014c8:	e743      	b.n	1a001352 <__udivmoddi4+0xa2>
1a0014ca:	4618      	mov	r0, r3
1a0014cc:	e737      	b.n	1a00133e <__udivmoddi4+0x8e>
1a0014ce:	4607      	mov	r7, r0
1a0014d0:	e71f      	b.n	1a001312 <__udivmoddi4+0x62>
1a0014d2:	f1c2 0320 	rsb	r3, r2, #32
1a0014d6:	fa20 f703 	lsr.w	r7, r0, r3
1a0014da:	4095      	lsls	r5, r2
1a0014dc:	fa01 f002 	lsl.w	r0, r1, r2
1a0014e0:	fa21 f303 	lsr.w	r3, r1, r3
1a0014e4:	ea4f 4e15 	mov.w	lr, r5, lsr #16
1a0014e8:	4338      	orrs	r0, r7
1a0014ea:	0c01      	lsrs	r1, r0, #16
1a0014ec:	fbb3 f7fe 	udiv	r7, r3, lr
1a0014f0:	fa1f f885 	uxth.w	r8, r5
1a0014f4:	fb0e 3317 	mls	r3, lr, r7, r3
1a0014f8:	ea41 4103 	orr.w	r1, r1, r3, lsl #16
1a0014fc:	fb07 f308 	mul.w	r3, r7, r8
1a001500:	428b      	cmp	r3, r1
1a001502:	fa04 f402 	lsl.w	r4, r4, r2
1a001506:	d907      	bls.n	1a001518 <__udivmoddi4+0x268>
1a001508:	1869      	adds	r1, r5, r1
1a00150a:	f107 3cff 	add.w	ip, r7, #4294967295
1a00150e:	d228      	bcs.n	1a001562 <__udivmoddi4+0x2b2>
1a001510:	428b      	cmp	r3, r1
1a001512:	d926      	bls.n	1a001562 <__udivmoddi4+0x2b2>
1a001514:	3f02      	subs	r7, #2
1a001516:	4429      	add	r1, r5
1a001518:	1acb      	subs	r3, r1, r3
1a00151a:	b281      	uxth	r1, r0
1a00151c:	fbb3 f0fe 	udiv	r0, r3, lr
1a001520:	fb0e 3310 	mls	r3, lr, r0, r3
1a001524:	ea41 4103 	orr.w	r1, r1, r3, lsl #16
1a001528:	fb00 f308 	mul.w	r3, r0, r8
1a00152c:	428b      	cmp	r3, r1
1a00152e:	d907      	bls.n	1a001540 <__udivmoddi4+0x290>
1a001530:	1869      	adds	r1, r5, r1
1a001532:	f100 3cff 	add.w	ip, r0, #4294967295
1a001536:	d210      	bcs.n	1a00155a <__udivmoddi4+0x2aa>
1a001538:	428b      	cmp	r3, r1
1a00153a:	d90e      	bls.n	1a00155a <__udivmoddi4+0x2aa>
1a00153c:	3802      	subs	r0, #2
1a00153e:	4429      	add	r1, r5
1a001540:	1ac9      	subs	r1, r1, r3
1a001542:	ea40 4707 	orr.w	r7, r0, r7, lsl #16
1a001546:	e714      	b.n	1a001372 <__udivmoddi4+0xc2>
1a001548:	4541      	cmp	r1, r8
1a00154a:	d2ab      	bcs.n	1a0014a4 <__udivmoddi4+0x1f4>
1a00154c:	ebb8 0e02 	subs.w	lr, r8, r2
1a001550:	eb69 020c 	sbc.w	r2, r9, ip
1a001554:	3801      	subs	r0, #1
1a001556:	4613      	mov	r3, r2
1a001558:	e7a4      	b.n	1a0014a4 <__udivmoddi4+0x1f4>
1a00155a:	4660      	mov	r0, ip
1a00155c:	e7f0      	b.n	1a001540 <__udivmoddi4+0x290>
1a00155e:	4618      	mov	r0, r3
1a001560:	e795      	b.n	1a00148e <__udivmoddi4+0x1de>
1a001562:	4667      	mov	r7, ip
1a001564:	e7d8      	b.n	1a001518 <__udivmoddi4+0x268>
1a001566:	4681      	mov	r9, r0
1a001568:	e77b      	b.n	1a001462 <__udivmoddi4+0x1b2>
1a00156a:	4638      	mov	r0, r7
1a00156c:	e745      	b.n	1a0013fa <__udivmoddi4+0x14a>
1a00156e:	f1ac 0c02 	sub.w	ip, ip, #2
1a001572:	442b      	add	r3, r5
1a001574:	e710      	b.n	1a001398 <__udivmoddi4+0xe8>
1a001576:	3802      	subs	r0, #2
1a001578:	442c      	add	r4, r5
1a00157a:	e721      	b.n	1a0013c0 <__udivmoddi4+0x110>
1a00157c:	4637      	mov	r7, r6
1a00157e:	e6e8      	b.n	1a001352 <__udivmoddi4+0xa2>

1a001580 <__aeabi_idiv0>:
1a001580:	4770      	bx	lr
1a001582:	bf00      	nop

1a001584 <memset>:
1a001584:	4402      	add	r2, r0
1a001586:	4603      	mov	r3, r0
1a001588:	4293      	cmp	r3, r2
1a00158a:	d100      	bne.n	1a00158e <memset+0xa>
1a00158c:	4770      	bx	lr
1a00158e:	f803 1b01 	strb.w	r1, [r3], #1
1a001592:	e7f9      	b.n	1a001588 <memset+0x4>

1a001594 <iprintf>:
1a001594:	b40f      	push	{r0, r1, r2, r3}
1a001596:	4b0a      	ldr	r3, [pc, #40]	; (1a0015c0 <iprintf+0x2c>)
1a001598:	b513      	push	{r0, r1, r4, lr}
1a00159a:	681c      	ldr	r4, [r3, #0]
1a00159c:	b124      	cbz	r4, 1a0015a8 <iprintf+0x14>
1a00159e:	69a3      	ldr	r3, [r4, #24]
1a0015a0:	b913      	cbnz	r3, 1a0015a8 <iprintf+0x14>
1a0015a2:	4620      	mov	r0, r4
1a0015a4:	f000 f888 	bl	1a0016b8 <__sinit>
1a0015a8:	ab05      	add	r3, sp, #20
1a0015aa:	9a04      	ldr	r2, [sp, #16]
1a0015ac:	68a1      	ldr	r1, [r4, #8]
1a0015ae:	9301      	str	r3, [sp, #4]
1a0015b0:	4620      	mov	r0, r4
1a0015b2:	f000 f9a5 	bl	1a001900 <_vfiprintf_r>
1a0015b6:	b002      	add	sp, #8
1a0015b8:	e8bd 4010 	ldmia.w	sp!, {r4, lr}
1a0015bc:	b004      	add	sp, #16
1a0015be:	4770      	bx	lr
1a0015c0:	10000070 	.word	0x10000070

1a0015c4 <putchar>:
1a0015c4:	b538      	push	{r3, r4, r5, lr}
1a0015c6:	4b08      	ldr	r3, [pc, #32]	; (1a0015e8 <putchar+0x24>)
1a0015c8:	681c      	ldr	r4, [r3, #0]
1a0015ca:	4605      	mov	r5, r0
1a0015cc:	b124      	cbz	r4, 1a0015d8 <putchar+0x14>
1a0015ce:	69a3      	ldr	r3, [r4, #24]
1a0015d0:	b913      	cbnz	r3, 1a0015d8 <putchar+0x14>
1a0015d2:	4620      	mov	r0, r4
1a0015d4:	f000 f870 	bl	1a0016b8 <__sinit>
1a0015d8:	68a2      	ldr	r2, [r4, #8]
1a0015da:	4629      	mov	r1, r5
1a0015dc:	4620      	mov	r0, r4
1a0015de:	e8bd 4038 	ldmia.w	sp!, {r3, r4, r5, lr}
1a0015e2:	f000 bc3f 	b.w	1a001e64 <_putc_r>
1a0015e6:	bf00      	nop
1a0015e8:	10000070 	.word	0x10000070

1a0015ec <strchr>:
1a0015ec:	b2c9      	uxtb	r1, r1
1a0015ee:	4603      	mov	r3, r0
1a0015f0:	f810 2b01 	ldrb.w	r2, [r0], #1
1a0015f4:	b11a      	cbz	r2, 1a0015fe <strchr+0x12>
1a0015f6:	428a      	cmp	r2, r1
1a0015f8:	d1f9      	bne.n	1a0015ee <strchr+0x2>
1a0015fa:	4618      	mov	r0, r3
1a0015fc:	4770      	bx	lr
1a0015fe:	2900      	cmp	r1, #0
1a001600:	bf18      	it	ne
1a001602:	2300      	movne	r3, #0
1a001604:	e7f9      	b.n	1a0015fa <strchr+0xe>
1a001606:	Address 0x1a001606 is out of bounds.


1a001608 <std>:
1a001608:	2300      	movs	r3, #0
1a00160a:	b510      	push	{r4, lr}
1a00160c:	4604      	mov	r4, r0
1a00160e:	e9c0 3300 	strd	r3, r3, [r0]
1a001612:	6083      	str	r3, [r0, #8]
1a001614:	8181      	strh	r1, [r0, #12]
1a001616:	6643      	str	r3, [r0, #100]	; 0x64
1a001618:	81c2      	strh	r2, [r0, #14]
1a00161a:	e9c0 3304 	strd	r3, r3, [r0, #16]
1a00161e:	6183      	str	r3, [r0, #24]
1a001620:	4619      	mov	r1, r3
1a001622:	2208      	movs	r2, #8
1a001624:	305c      	adds	r0, #92	; 0x5c
1a001626:	f7ff ffad 	bl	1a001584 <memset>
1a00162a:	4b05      	ldr	r3, [pc, #20]	; (1a001640 <std+0x38>)
1a00162c:	6263      	str	r3, [r4, #36]	; 0x24
1a00162e:	4b05      	ldr	r3, [pc, #20]	; (1a001644 <std+0x3c>)
1a001630:	62a3      	str	r3, [r4, #40]	; 0x28
1a001632:	4b05      	ldr	r3, [pc, #20]	; (1a001648 <std+0x40>)
1a001634:	62e3      	str	r3, [r4, #44]	; 0x2c
1a001636:	4b05      	ldr	r3, [pc, #20]	; (1a00164c <std+0x44>)
1a001638:	6224      	str	r4, [r4, #32]
1a00163a:	6323      	str	r3, [r4, #48]	; 0x30
1a00163c:	bd10      	pop	{r4, pc}
1a00163e:	bf00      	nop
1a001640:	1a001ef5 	.word	0x1a001ef5
1a001644:	1a001f17 	.word	0x1a001f17
1a001648:	1a001f4f 	.word	0x1a001f4f
1a00164c:	1a001f73 	.word	0x1a001f73

1a001650 <_cleanup_r>:
1a001650:	4901      	ldr	r1, [pc, #4]	; (1a001658 <_cleanup_r+0x8>)
1a001652:	f000 b8af 	b.w	1a0017b4 <_fwalk_reent>
1a001656:	bf00      	nop
1a001658:	1a002209 	.word	0x1a002209

1a00165c <__sfmoreglue>:
1a00165c:	b570      	push	{r4, r5, r6, lr}
1a00165e:	1e4a      	subs	r2, r1, #1
1a001660:	2568      	movs	r5, #104	; 0x68
1a001662:	4355      	muls	r5, r2
1a001664:	460e      	mov	r6, r1
1a001666:	f105 0174 	add.w	r1, r5, #116	; 0x74
1a00166a:	f000 f8c5 	bl	1a0017f8 <_malloc_r>
1a00166e:	4604      	mov	r4, r0
1a001670:	b140      	cbz	r0, 1a001684 <__sfmoreglue+0x28>
1a001672:	2100      	movs	r1, #0
1a001674:	e9c0 1600 	strd	r1, r6, [r0]
1a001678:	300c      	adds	r0, #12
1a00167a:	60a0      	str	r0, [r4, #8]
1a00167c:	f105 0268 	add.w	r2, r5, #104	; 0x68
1a001680:	f7ff ff80 	bl	1a001584 <memset>
1a001684:	4620      	mov	r0, r4
1a001686:	bd70      	pop	{r4, r5, r6, pc}

1a001688 <__sfp_lock_acquire>:
1a001688:	4801      	ldr	r0, [pc, #4]	; (1a001690 <__sfp_lock_acquire+0x8>)
1a00168a:	f000 b8b2 	b.w	1a0017f2 <__retarget_lock_acquire_recursive>
1a00168e:	bf00      	nop
1a001690:	100001a4 	.word	0x100001a4

1a001694 <__sfp_lock_release>:
1a001694:	4801      	ldr	r0, [pc, #4]	; (1a00169c <__sfp_lock_release+0x8>)
1a001696:	f000 b8ad 	b.w	1a0017f4 <__retarget_lock_release_recursive>
1a00169a:	bf00      	nop
1a00169c:	100001a4 	.word	0x100001a4

1a0016a0 <__sinit_lock_acquire>:
1a0016a0:	4801      	ldr	r0, [pc, #4]	; (1a0016a8 <__sinit_lock_acquire+0x8>)
1a0016a2:	f000 b8a6 	b.w	1a0017f2 <__retarget_lock_acquire_recursive>
1a0016a6:	bf00      	nop
1a0016a8:	1000019f 	.word	0x1000019f

1a0016ac <__sinit_lock_release>:
1a0016ac:	4801      	ldr	r0, [pc, #4]	; (1a0016b4 <__sinit_lock_release+0x8>)
1a0016ae:	f000 b8a1 	b.w	1a0017f4 <__retarget_lock_release_recursive>
1a0016b2:	bf00      	nop
1a0016b4:	1000019f 	.word	0x1000019f

1a0016b8 <__sinit>:
1a0016b8:	b510      	push	{r4, lr}
1a0016ba:	4604      	mov	r4, r0
1a0016bc:	f7ff fff0 	bl	1a0016a0 <__sinit_lock_acquire>
1a0016c0:	69a3      	ldr	r3, [r4, #24]
1a0016c2:	b11b      	cbz	r3, 1a0016cc <__sinit+0x14>
1a0016c4:	e8bd 4010 	ldmia.w	sp!, {r4, lr}
1a0016c8:	f7ff bff0 	b.w	1a0016ac <__sinit_lock_release>
1a0016cc:	e9c4 3312 	strd	r3, r3, [r4, #72]	; 0x48
1a0016d0:	6523      	str	r3, [r4, #80]	; 0x50
1a0016d2:	4b13      	ldr	r3, [pc, #76]	; (1a001720 <__sinit+0x68>)
1a0016d4:	4a13      	ldr	r2, [pc, #76]	; (1a001724 <__sinit+0x6c>)
1a0016d6:	681b      	ldr	r3, [r3, #0]
1a0016d8:	62a2      	str	r2, [r4, #40]	; 0x28
1a0016da:	42a3      	cmp	r3, r4
1a0016dc:	bf04      	itt	eq
1a0016de:	2301      	moveq	r3, #1
1a0016e0:	61a3      	streq	r3, [r4, #24]
1a0016e2:	4620      	mov	r0, r4
1a0016e4:	f000 f820 	bl	1a001728 <__sfp>
1a0016e8:	6060      	str	r0, [r4, #4]
1a0016ea:	4620      	mov	r0, r4
1a0016ec:	f000 f81c 	bl	1a001728 <__sfp>
1a0016f0:	60a0      	str	r0, [r4, #8]
1a0016f2:	4620      	mov	r0, r4
1a0016f4:	f000 f818 	bl	1a001728 <__sfp>
1a0016f8:	2200      	movs	r2, #0
1a0016fa:	60e0      	str	r0, [r4, #12]
1a0016fc:	2104      	movs	r1, #4
1a0016fe:	6860      	ldr	r0, [r4, #4]
1a001700:	f7ff ff82 	bl	1a001608 <std>
1a001704:	2201      	movs	r2, #1
1a001706:	2109      	movs	r1, #9
1a001708:	68a0      	ldr	r0, [r4, #8]
1a00170a:	f7ff ff7d 	bl	1a001608 <std>
1a00170e:	2202      	movs	r2, #2
1a001710:	2112      	movs	r1, #18
1a001712:	68e0      	ldr	r0, [r4, #12]
1a001714:	f7ff ff78 	bl	1a001608 <std>
1a001718:	2301      	movs	r3, #1
1a00171a:	61a3      	str	r3, [r4, #24]
1a00171c:	e7d2      	b.n	1a0016c4 <__sinit+0xc>
1a00171e:	bf00      	nop
1a001720:	1a002914 	.word	0x1a002914
1a001724:	1a001651 	.word	0x1a001651

1a001728 <__sfp>:
1a001728:	b5f8      	push	{r3, r4, r5, r6, r7, lr}
1a00172a:	4607      	mov	r7, r0
1a00172c:	f7ff ffac 	bl	1a001688 <__sfp_lock_acquire>
1a001730:	4b1e      	ldr	r3, [pc, #120]	; (1a0017ac <__sfp+0x84>)
1a001732:	681e      	ldr	r6, [r3, #0]
1a001734:	69b3      	ldr	r3, [r6, #24]
1a001736:	b913      	cbnz	r3, 1a00173e <__sfp+0x16>
1a001738:	4630      	mov	r0, r6
1a00173a:	f7ff ffbd 	bl	1a0016b8 <__sinit>
1a00173e:	3648      	adds	r6, #72	; 0x48
1a001740:	e9d6 3401 	ldrd	r3, r4, [r6, #4]
1a001744:	3b01      	subs	r3, #1
1a001746:	d503      	bpl.n	1a001750 <__sfp+0x28>
1a001748:	6833      	ldr	r3, [r6, #0]
1a00174a:	b30b      	cbz	r3, 1a001790 <__sfp+0x68>
1a00174c:	6836      	ldr	r6, [r6, #0]
1a00174e:	e7f7      	b.n	1a001740 <__sfp+0x18>
1a001750:	f9b4 500c 	ldrsh.w	r5, [r4, #12]
1a001754:	b9d5      	cbnz	r5, 1a00178c <__sfp+0x64>
1a001756:	4b16      	ldr	r3, [pc, #88]	; (1a0017b0 <__sfp+0x88>)
1a001758:	60e3      	str	r3, [r4, #12]
1a00175a:	f104 0058 	add.w	r0, r4, #88	; 0x58
1a00175e:	6665      	str	r5, [r4, #100]	; 0x64
1a001760:	f000 f846 	bl	1a0017f0 <__retarget_lock_init_recursive>
1a001764:	f7ff ff96 	bl	1a001694 <__sfp_lock_release>
1a001768:	6025      	str	r5, [r4, #0]
1a00176a:	e9c4 5501 	strd	r5, r5, [r4, #4]
1a00176e:	e9c4 5504 	strd	r5, r5, [r4, #16]
1a001772:	61a5      	str	r5, [r4, #24]
1a001774:	2208      	movs	r2, #8
1a001776:	4629      	mov	r1, r5
1a001778:	f104 005c 	add.w	r0, r4, #92	; 0x5c
1a00177c:	f7ff ff02 	bl	1a001584 <memset>
1a001780:	e9c4 550d 	strd	r5, r5, [r4, #52]	; 0x34
1a001784:	e9c4 5512 	strd	r5, r5, [r4, #72]	; 0x48
1a001788:	4620      	mov	r0, r4
1a00178a:	bdf8      	pop	{r3, r4, r5, r6, r7, pc}
1a00178c:	3468      	adds	r4, #104	; 0x68
1a00178e:	e7d9      	b.n	1a001744 <__sfp+0x1c>
1a001790:	2104      	movs	r1, #4
1a001792:	4638      	mov	r0, r7
1a001794:	f7ff ff62 	bl	1a00165c <__sfmoreglue>
1a001798:	4604      	mov	r4, r0
1a00179a:	6030      	str	r0, [r6, #0]
1a00179c:	2800      	cmp	r0, #0
1a00179e:	d1d5      	bne.n	1a00174c <__sfp+0x24>
1a0017a0:	f7ff ff78 	bl	1a001694 <__sfp_lock_release>
1a0017a4:	230c      	movs	r3, #12
1a0017a6:	603b      	str	r3, [r7, #0]
1a0017a8:	e7ee      	b.n	1a001788 <__sfp+0x60>
1a0017aa:	bf00      	nop
1a0017ac:	1a002914 	.word	0x1a002914
1a0017b0:	ffff0001 	.word	0xffff0001

1a0017b4 <_fwalk_reent>:
1a0017b4:	e92d 43f8 	stmdb	sp!, {r3, r4, r5, r6, r7, r8, r9, lr}
1a0017b8:	4680      	mov	r8, r0
1a0017ba:	4689      	mov	r9, r1
1a0017bc:	f100 0448 	add.w	r4, r0, #72	; 0x48
1a0017c0:	2600      	movs	r6, #0
1a0017c2:	b914      	cbnz	r4, 1a0017ca <_fwalk_reent+0x16>
1a0017c4:	4630      	mov	r0, r6
1a0017c6:	e8bd 83f8 	ldmia.w	sp!, {r3, r4, r5, r6, r7, r8, r9, pc}
1a0017ca:	e9d4 7501 	ldrd	r7, r5, [r4, #4]
1a0017ce:	3f01      	subs	r7, #1
1a0017d0:	d501      	bpl.n	1a0017d6 <_fwalk_reent+0x22>
1a0017d2:	6824      	ldr	r4, [r4, #0]
1a0017d4:	e7f5      	b.n	1a0017c2 <_fwalk_reent+0xe>
1a0017d6:	89ab      	ldrh	r3, [r5, #12]
1a0017d8:	2b01      	cmp	r3, #1
1a0017da:	d907      	bls.n	1a0017ec <_fwalk_reent+0x38>
1a0017dc:	f9b5 300e 	ldrsh.w	r3, [r5, #14]
1a0017e0:	3301      	adds	r3, #1
1a0017e2:	d003      	beq.n	1a0017ec <_fwalk_reent+0x38>
1a0017e4:	4629      	mov	r1, r5
1a0017e6:	4640      	mov	r0, r8
1a0017e8:	47c8      	blx	r9
1a0017ea:	4306      	orrs	r6, r0
1a0017ec:	3568      	adds	r5, #104	; 0x68
1a0017ee:	e7ee      	b.n	1a0017ce <_fwalk_reent+0x1a>

1a0017f0 <__retarget_lock_init_recursive>:
1a0017f0:	4770      	bx	lr

1a0017f2 <__retarget_lock_acquire_recursive>:
1a0017f2:	4770      	bx	lr

1a0017f4 <__retarget_lock_release_recursive>:
1a0017f4:	4770      	bx	lr
1a0017f6:	Address 0x1a0017f6 is out of bounds.


1a0017f8 <_malloc_r>:
1a0017f8:	b5f8      	push	{r3, r4, r5, r6, r7, lr}
1a0017fa:	1ccd      	adds	r5, r1, #3
1a0017fc:	f025 0503 	bic.w	r5, r5, #3
1a001800:	3508      	adds	r5, #8
1a001802:	2d0c      	cmp	r5, #12
1a001804:	bf38      	it	cc
1a001806:	250c      	movcc	r5, #12
1a001808:	2d00      	cmp	r5, #0
1a00180a:	4606      	mov	r6, r0
1a00180c:	db01      	blt.n	1a001812 <_malloc_r+0x1a>
1a00180e:	42a9      	cmp	r1, r5
1a001810:	d903      	bls.n	1a00181a <_malloc_r+0x22>
1a001812:	230c      	movs	r3, #12
1a001814:	6033      	str	r3, [r6, #0]
1a001816:	2000      	movs	r0, #0
1a001818:	bdf8      	pop	{r3, r4, r5, r6, r7, pc}
1a00181a:	f000 fde9 	bl	1a0023f0 <__malloc_lock>
1a00181e:	4921      	ldr	r1, [pc, #132]	; (1a0018a4 <_malloc_r+0xac>)
1a001820:	680a      	ldr	r2, [r1, #0]
1a001822:	4614      	mov	r4, r2
1a001824:	b99c      	cbnz	r4, 1a00184e <_malloc_r+0x56>
1a001826:	4f20      	ldr	r7, [pc, #128]	; (1a0018a8 <_malloc_r+0xb0>)
1a001828:	683b      	ldr	r3, [r7, #0]
1a00182a:	b923      	cbnz	r3, 1a001836 <_malloc_r+0x3e>
1a00182c:	4621      	mov	r1, r4
1a00182e:	4630      	mov	r0, r6
1a001830:	f7ff fbca 	bl	1a000fc8 <_sbrk_r>
1a001834:	6038      	str	r0, [r7, #0]
1a001836:	4629      	mov	r1, r5
1a001838:	4630      	mov	r0, r6
1a00183a:	f7ff fbc5 	bl	1a000fc8 <_sbrk_r>
1a00183e:	1c43      	adds	r3, r0, #1
1a001840:	d123      	bne.n	1a00188a <_malloc_r+0x92>
1a001842:	230c      	movs	r3, #12
1a001844:	6033      	str	r3, [r6, #0]
1a001846:	4630      	mov	r0, r6
1a001848:	f000 fdd8 	bl	1a0023fc <__malloc_unlock>
1a00184c:	e7e3      	b.n	1a001816 <_malloc_r+0x1e>
1a00184e:	6823      	ldr	r3, [r4, #0]
1a001850:	1b5b      	subs	r3, r3, r5
1a001852:	d417      	bmi.n	1a001884 <_malloc_r+0x8c>
1a001854:	2b0b      	cmp	r3, #11
1a001856:	d903      	bls.n	1a001860 <_malloc_r+0x68>
1a001858:	6023      	str	r3, [r4, #0]
1a00185a:	441c      	add	r4, r3
1a00185c:	6025      	str	r5, [r4, #0]
1a00185e:	e004      	b.n	1a00186a <_malloc_r+0x72>
1a001860:	6863      	ldr	r3, [r4, #4]
1a001862:	42a2      	cmp	r2, r4
1a001864:	bf0c      	ite	eq
1a001866:	600b      	streq	r3, [r1, #0]
1a001868:	6053      	strne	r3, [r2, #4]
1a00186a:	4630      	mov	r0, r6
1a00186c:	f000 fdc6 	bl	1a0023fc <__malloc_unlock>
1a001870:	f104 000b 	add.w	r0, r4, #11
1a001874:	1d23      	adds	r3, r4, #4
1a001876:	f020 0007 	bic.w	r0, r0, #7
1a00187a:	1ac2      	subs	r2, r0, r3
1a00187c:	d0cc      	beq.n	1a001818 <_malloc_r+0x20>
1a00187e:	1a1b      	subs	r3, r3, r0
1a001880:	50a3      	str	r3, [r4, r2]
1a001882:	e7c9      	b.n	1a001818 <_malloc_r+0x20>
1a001884:	4622      	mov	r2, r4
1a001886:	6864      	ldr	r4, [r4, #4]
1a001888:	e7cc      	b.n	1a001824 <_malloc_r+0x2c>
1a00188a:	1cc4      	adds	r4, r0, #3
1a00188c:	f024 0403 	bic.w	r4, r4, #3
1a001890:	42a0      	cmp	r0, r4
1a001892:	d0e3      	beq.n	1a00185c <_malloc_r+0x64>
1a001894:	1a21      	subs	r1, r4, r0
1a001896:	4630      	mov	r0, r6
1a001898:	f7ff fb96 	bl	1a000fc8 <_sbrk_r>
1a00189c:	3001      	adds	r0, #1
1a00189e:	d1dd      	bne.n	1a00185c <_malloc_r+0x64>
1a0018a0:	e7cf      	b.n	1a001842 <_malloc_r+0x4a>
1a0018a2:	bf00      	nop
1a0018a4:	10000190 	.word	0x10000190
1a0018a8:	10000194 	.word	0x10000194

1a0018ac <__sfputc_r>:
1a0018ac:	6893      	ldr	r3, [r2, #8]
1a0018ae:	3b01      	subs	r3, #1
1a0018b0:	2b00      	cmp	r3, #0
1a0018b2:	b410      	push	{r4}
1a0018b4:	6093      	str	r3, [r2, #8]
1a0018b6:	da08      	bge.n	1a0018ca <__sfputc_r+0x1e>
1a0018b8:	6994      	ldr	r4, [r2, #24]
1a0018ba:	42a3      	cmp	r3, r4
1a0018bc:	db01      	blt.n	1a0018c2 <__sfputc_r+0x16>
1a0018be:	290a      	cmp	r1, #10
1a0018c0:	d103      	bne.n	1a0018ca <__sfputc_r+0x1e>
1a0018c2:	f85d 4b04 	ldr.w	r4, [sp], #4
1a0018c6:	f000 bb59 	b.w	1a001f7c <__swbuf_r>
1a0018ca:	6813      	ldr	r3, [r2, #0]
1a0018cc:	1c58      	adds	r0, r3, #1
1a0018ce:	6010      	str	r0, [r2, #0]
1a0018d0:	7019      	strb	r1, [r3, #0]
1a0018d2:	4608      	mov	r0, r1
1a0018d4:	f85d 4b04 	ldr.w	r4, [sp], #4
1a0018d8:	4770      	bx	lr

1a0018da <__sfputs_r>:
1a0018da:	b5f8      	push	{r3, r4, r5, r6, r7, lr}
1a0018dc:	4606      	mov	r6, r0
1a0018de:	460f      	mov	r7, r1
1a0018e0:	4614      	mov	r4, r2
1a0018e2:	18d5      	adds	r5, r2, r3
1a0018e4:	42ac      	cmp	r4, r5
1a0018e6:	d101      	bne.n	1a0018ec <__sfputs_r+0x12>
1a0018e8:	2000      	movs	r0, #0
1a0018ea:	e007      	b.n	1a0018fc <__sfputs_r+0x22>
1a0018ec:	463a      	mov	r2, r7
1a0018ee:	f814 1b01 	ldrb.w	r1, [r4], #1
1a0018f2:	4630      	mov	r0, r6
1a0018f4:	f7ff ffda 	bl	1a0018ac <__sfputc_r>
1a0018f8:	1c43      	adds	r3, r0, #1
1a0018fa:	d1f3      	bne.n	1a0018e4 <__sfputs_r+0xa>
1a0018fc:	bdf8      	pop	{r3, r4, r5, r6, r7, pc}
1a0018fe:	Address 0x1a0018fe is out of bounds.


1a001900 <_vfiprintf_r>:
1a001900:	e92d 4ff0 	stmdb	sp!, {r4, r5, r6, r7, r8, r9, sl, fp, lr}
1a001904:	460d      	mov	r5, r1
1a001906:	b09d      	sub	sp, #116	; 0x74
1a001908:	4614      	mov	r4, r2
1a00190a:	461e      	mov	r6, r3
1a00190c:	4607      	mov	r7, r0
1a00190e:	b118      	cbz	r0, 1a001918 <_vfiprintf_r+0x18>
1a001910:	6983      	ldr	r3, [r0, #24]
1a001912:	b90b      	cbnz	r3, 1a001918 <_vfiprintf_r+0x18>
1a001914:	f7ff fed0 	bl	1a0016b8 <__sinit>
1a001918:	4b85      	ldr	r3, [pc, #532]	; (1a001b30 <_vfiprintf_r+0x230>)
1a00191a:	429d      	cmp	r5, r3
1a00191c:	d11b      	bne.n	1a001956 <_vfiprintf_r+0x56>
1a00191e:	687d      	ldr	r5, [r7, #4]
1a001920:	6e6b      	ldr	r3, [r5, #100]	; 0x64
1a001922:	07d9      	lsls	r1, r3, #31
1a001924:	d405      	bmi.n	1a001932 <_vfiprintf_r+0x32>
1a001926:	89ab      	ldrh	r3, [r5, #12]
1a001928:	059a      	lsls	r2, r3, #22
1a00192a:	d402      	bmi.n	1a001932 <_vfiprintf_r+0x32>
1a00192c:	6da8      	ldr	r0, [r5, #88]	; 0x58
1a00192e:	f7ff ff60 	bl	1a0017f2 <__retarget_lock_acquire_recursive>
1a001932:	89ab      	ldrh	r3, [r5, #12]
1a001934:	071b      	lsls	r3, r3, #28
1a001936:	d501      	bpl.n	1a00193c <_vfiprintf_r+0x3c>
1a001938:	692b      	ldr	r3, [r5, #16]
1a00193a:	b9eb      	cbnz	r3, 1a001978 <_vfiprintf_r+0x78>
1a00193c:	4629      	mov	r1, r5
1a00193e:	4638      	mov	r0, r7
1a001940:	f000 fb6e 	bl	1a002020 <__swsetup_r>
1a001944:	b1c0      	cbz	r0, 1a001978 <_vfiprintf_r+0x78>
1a001946:	6e6b      	ldr	r3, [r5, #100]	; 0x64
1a001948:	07d8      	lsls	r0, r3, #31
1a00194a:	d50e      	bpl.n	1a00196a <_vfiprintf_r+0x6a>
1a00194c:	f04f 30ff 	mov.w	r0, #4294967295
1a001950:	b01d      	add	sp, #116	; 0x74
1a001952:	e8bd 8ff0 	ldmia.w	sp!, {r4, r5, r6, r7, r8, r9, sl, fp, pc}
1a001956:	4b77      	ldr	r3, [pc, #476]	; (1a001b34 <_vfiprintf_r+0x234>)
1a001958:	429d      	cmp	r5, r3
1a00195a:	d101      	bne.n	1a001960 <_vfiprintf_r+0x60>
1a00195c:	68bd      	ldr	r5, [r7, #8]
1a00195e:	e7df      	b.n	1a001920 <_vfiprintf_r+0x20>
1a001960:	4b75      	ldr	r3, [pc, #468]	; (1a001b38 <_vfiprintf_r+0x238>)
1a001962:	429d      	cmp	r5, r3
1a001964:	bf08      	it	eq
1a001966:	68fd      	ldreq	r5, [r7, #12]
1a001968:	e7da      	b.n	1a001920 <_vfiprintf_r+0x20>
1a00196a:	89ab      	ldrh	r3, [r5, #12]
1a00196c:	0599      	lsls	r1, r3, #22
1a00196e:	d4ed      	bmi.n	1a00194c <_vfiprintf_r+0x4c>
1a001970:	6da8      	ldr	r0, [r5, #88]	; 0x58
1a001972:	f7ff ff3f 	bl	1a0017f4 <__retarget_lock_release_recursive>
1a001976:	e7e9      	b.n	1a00194c <_vfiprintf_r+0x4c>
1a001978:	2300      	movs	r3, #0
1a00197a:	9309      	str	r3, [sp, #36]	; 0x24
1a00197c:	2320      	movs	r3, #32
1a00197e:	f88d 3029 	strb.w	r3, [sp, #41]	; 0x29
1a001982:	f8df 91b8 	ldr.w	r9, [pc, #440]	; 1a001b3c <_vfiprintf_r+0x23c>
1a001986:	9603      	str	r6, [sp, #12]
1a001988:	2330      	movs	r3, #48	; 0x30
1a00198a:	f88d 302a 	strb.w	r3, [sp, #42]	; 0x2a
1a00198e:	f04f 0a01 	mov.w	sl, #1
1a001992:	4623      	mov	r3, r4
1a001994:	461e      	mov	r6, r3
1a001996:	f813 2b01 	ldrb.w	r2, [r3], #1
1a00199a:	b10a      	cbz	r2, 1a0019a0 <_vfiprintf_r+0xa0>
1a00199c:	2a25      	cmp	r2, #37	; 0x25
1a00199e:	d1f9      	bne.n	1a001994 <_vfiprintf_r+0x94>
1a0019a0:	ebb6 0b04 	subs.w	fp, r6, r4
1a0019a4:	d00b      	beq.n	1a0019be <_vfiprintf_r+0xbe>
1a0019a6:	465b      	mov	r3, fp
1a0019a8:	4622      	mov	r2, r4
1a0019aa:	4629      	mov	r1, r5
1a0019ac:	4638      	mov	r0, r7
1a0019ae:	f7ff ff94 	bl	1a0018da <__sfputs_r>
1a0019b2:	3001      	adds	r0, #1
1a0019b4:	f000 80a3 	beq.w	1a001afe <_vfiprintf_r+0x1fe>
1a0019b8:	9b09      	ldr	r3, [sp, #36]	; 0x24
1a0019ba:	445b      	add	r3, fp
1a0019bc:	9309      	str	r3, [sp, #36]	; 0x24
1a0019be:	7833      	ldrb	r3, [r6, #0]
1a0019c0:	2b00      	cmp	r3, #0
1a0019c2:	f000 809c 	beq.w	1a001afe <_vfiprintf_r+0x1fe>
1a0019c6:	2300      	movs	r3, #0
1a0019c8:	f04f 32ff 	mov.w	r2, #4294967295
1a0019cc:	e9cd 2305 	strd	r2, r3, [sp, #20]
1a0019d0:	3601      	adds	r6, #1
1a0019d2:	9304      	str	r3, [sp, #16]
1a0019d4:	9307      	str	r3, [sp, #28]
1a0019d6:	f88d 3053 	strb.w	r3, [sp, #83]	; 0x53
1a0019da:	931a      	str	r3, [sp, #104]	; 0x68
1a0019dc:	4634      	mov	r4, r6
1a0019de:	2205      	movs	r2, #5
1a0019e0:	f814 1b01 	ldrb.w	r1, [r4], #1
1a0019e4:	4855      	ldr	r0, [pc, #340]	; (1a001b3c <_vfiprintf_r+0x23c>)
1a0019e6:	f000 fcb3 	bl	1a002350 <memchr>
1a0019ea:	9b04      	ldr	r3, [sp, #16]
1a0019ec:	b9c0      	cbnz	r0, 1a001a20 <_vfiprintf_r+0x120>
1a0019ee:	06da      	lsls	r2, r3, #27
1a0019f0:	bf44      	itt	mi
1a0019f2:	2220      	movmi	r2, #32
1a0019f4:	f88d 2053 	strbmi.w	r2, [sp, #83]	; 0x53
1a0019f8:	0718      	lsls	r0, r3, #28
1a0019fa:	bf44      	itt	mi
1a0019fc:	222b      	movmi	r2, #43	; 0x2b
1a0019fe:	f88d 2053 	strbmi.w	r2, [sp, #83]	; 0x53
1a001a02:	7832      	ldrb	r2, [r6, #0]
1a001a04:	2a2a      	cmp	r2, #42	; 0x2a
1a001a06:	d013      	beq.n	1a001a30 <_vfiprintf_r+0x130>
1a001a08:	9a07      	ldr	r2, [sp, #28]
1a001a0a:	4634      	mov	r4, r6
1a001a0c:	2000      	movs	r0, #0
1a001a0e:	260a      	movs	r6, #10
1a001a10:	4621      	mov	r1, r4
1a001a12:	f811 3b01 	ldrb.w	r3, [r1], #1
1a001a16:	3b30      	subs	r3, #48	; 0x30
1a001a18:	2b09      	cmp	r3, #9
1a001a1a:	d94b      	bls.n	1a001ab4 <_vfiprintf_r+0x1b4>
1a001a1c:	b970      	cbnz	r0, 1a001a3c <_vfiprintf_r+0x13c>
1a001a1e:	e014      	b.n	1a001a4a <_vfiprintf_r+0x14a>
1a001a20:	eba0 0009 	sub.w	r0, r0, r9
1a001a24:	fa0a f000 	lsl.w	r0, sl, r0
1a001a28:	4318      	orrs	r0, r3
1a001a2a:	9004      	str	r0, [sp, #16]
1a001a2c:	4626      	mov	r6, r4
1a001a2e:	e7d5      	b.n	1a0019dc <_vfiprintf_r+0xdc>
1a001a30:	9a03      	ldr	r2, [sp, #12]
1a001a32:	1d11      	adds	r1, r2, #4
1a001a34:	6812      	ldr	r2, [r2, #0]
1a001a36:	9103      	str	r1, [sp, #12]
1a001a38:	2a00      	cmp	r2, #0
1a001a3a:	db01      	blt.n	1a001a40 <_vfiprintf_r+0x140>
1a001a3c:	9207      	str	r2, [sp, #28]
1a001a3e:	e004      	b.n	1a001a4a <_vfiprintf_r+0x14a>
1a001a40:	4252      	negs	r2, r2
1a001a42:	f043 0302 	orr.w	r3, r3, #2
1a001a46:	9207      	str	r2, [sp, #28]
1a001a48:	9304      	str	r3, [sp, #16]
1a001a4a:	7823      	ldrb	r3, [r4, #0]
1a001a4c:	2b2e      	cmp	r3, #46	; 0x2e
1a001a4e:	d10c      	bne.n	1a001a6a <_vfiprintf_r+0x16a>
1a001a50:	7863      	ldrb	r3, [r4, #1]
1a001a52:	2b2a      	cmp	r3, #42	; 0x2a
1a001a54:	d133      	bne.n	1a001abe <_vfiprintf_r+0x1be>
1a001a56:	9b03      	ldr	r3, [sp, #12]
1a001a58:	1d1a      	adds	r2, r3, #4
1a001a5a:	681b      	ldr	r3, [r3, #0]
1a001a5c:	9203      	str	r2, [sp, #12]
1a001a5e:	2b00      	cmp	r3, #0
1a001a60:	bfb8      	it	lt
1a001a62:	f04f 33ff 	movlt.w	r3, #4294967295
1a001a66:	3402      	adds	r4, #2
1a001a68:	9305      	str	r3, [sp, #20]
1a001a6a:	4e35      	ldr	r6, [pc, #212]	; (1a001b40 <_vfiprintf_r+0x240>)
1a001a6c:	7821      	ldrb	r1, [r4, #0]
1a001a6e:	2203      	movs	r2, #3
1a001a70:	4630      	mov	r0, r6
1a001a72:	f000 fc6d 	bl	1a002350 <memchr>
1a001a76:	b138      	cbz	r0, 1a001a88 <_vfiprintf_r+0x188>
1a001a78:	2340      	movs	r3, #64	; 0x40
1a001a7a:	1b80      	subs	r0, r0, r6
1a001a7c:	fa03 f000 	lsl.w	r0, r3, r0
1a001a80:	9b04      	ldr	r3, [sp, #16]
1a001a82:	4303      	orrs	r3, r0
1a001a84:	3401      	adds	r4, #1
1a001a86:	9304      	str	r3, [sp, #16]
1a001a88:	f814 1b01 	ldrb.w	r1, [r4], #1
1a001a8c:	482d      	ldr	r0, [pc, #180]	; (1a001b44 <_vfiprintf_r+0x244>)
1a001a8e:	f88d 1028 	strb.w	r1, [sp, #40]	; 0x28
1a001a92:	2206      	movs	r2, #6
1a001a94:	f000 fc5c 	bl	1a002350 <memchr>
1a001a98:	2800      	cmp	r0, #0
1a001a9a:	d03f      	beq.n	1a001b1c <_vfiprintf_r+0x21c>
1a001a9c:	4b2a      	ldr	r3, [pc, #168]	; (1a001b48 <_vfiprintf_r+0x248>)
1a001a9e:	bb13      	cbnz	r3, 1a001ae6 <_vfiprintf_r+0x1e6>
1a001aa0:	9b03      	ldr	r3, [sp, #12]
1a001aa2:	3307      	adds	r3, #7
1a001aa4:	f023 0307 	bic.w	r3, r3, #7
1a001aa8:	3308      	adds	r3, #8
1a001aaa:	9303      	str	r3, [sp, #12]
1a001aac:	9b09      	ldr	r3, [sp, #36]	; 0x24
1a001aae:	4443      	add	r3, r8
1a001ab0:	9309      	str	r3, [sp, #36]	; 0x24
1a001ab2:	e76e      	b.n	1a001992 <_vfiprintf_r+0x92>
1a001ab4:	fb06 3202 	mla	r2, r6, r2, r3
1a001ab8:	2001      	movs	r0, #1
1a001aba:	460c      	mov	r4, r1
1a001abc:	e7a8      	b.n	1a001a10 <_vfiprintf_r+0x110>
1a001abe:	2300      	movs	r3, #0
1a001ac0:	3401      	adds	r4, #1
1a001ac2:	9305      	str	r3, [sp, #20]
1a001ac4:	4619      	mov	r1, r3
1a001ac6:	260a      	movs	r6, #10
1a001ac8:	4620      	mov	r0, r4
1a001aca:	f810 2b01 	ldrb.w	r2, [r0], #1
1a001ace:	3a30      	subs	r2, #48	; 0x30
1a001ad0:	2a09      	cmp	r2, #9
1a001ad2:	d903      	bls.n	1a001adc <_vfiprintf_r+0x1dc>
1a001ad4:	2b00      	cmp	r3, #0
1a001ad6:	d0c8      	beq.n	1a001a6a <_vfiprintf_r+0x16a>
1a001ad8:	9105      	str	r1, [sp, #20]
1a001ada:	e7c6      	b.n	1a001a6a <_vfiprintf_r+0x16a>
1a001adc:	fb06 2101 	mla	r1, r6, r1, r2
1a001ae0:	2301      	movs	r3, #1
1a001ae2:	4604      	mov	r4, r0
1a001ae4:	e7f0      	b.n	1a001ac8 <_vfiprintf_r+0x1c8>
1a001ae6:	ab03      	add	r3, sp, #12
1a001ae8:	9300      	str	r3, [sp, #0]
1a001aea:	462a      	mov	r2, r5
1a001aec:	4b17      	ldr	r3, [pc, #92]	; (1a001b4c <_vfiprintf_r+0x24c>)
1a001aee:	a904      	add	r1, sp, #16
1a001af0:	4638      	mov	r0, r7
1a001af2:	f3af 8000 	nop.w
1a001af6:	f1b0 3fff 	cmp.w	r0, #4294967295
1a001afa:	4680      	mov	r8, r0
1a001afc:	d1d6      	bne.n	1a001aac <_vfiprintf_r+0x1ac>
1a001afe:	6e6b      	ldr	r3, [r5, #100]	; 0x64
1a001b00:	07d9      	lsls	r1, r3, #31
1a001b02:	d405      	bmi.n	1a001b10 <_vfiprintf_r+0x210>
1a001b04:	89ab      	ldrh	r3, [r5, #12]
1a001b06:	059a      	lsls	r2, r3, #22
1a001b08:	d402      	bmi.n	1a001b10 <_vfiprintf_r+0x210>
1a001b0a:	6da8      	ldr	r0, [r5, #88]	; 0x58
1a001b0c:	f7ff fe72 	bl	1a0017f4 <__retarget_lock_release_recursive>
1a001b10:	89ab      	ldrh	r3, [r5, #12]
1a001b12:	065b      	lsls	r3, r3, #25
1a001b14:	f53f af1a 	bmi.w	1a00194c <_vfiprintf_r+0x4c>
1a001b18:	9809      	ldr	r0, [sp, #36]	; 0x24
1a001b1a:	e719      	b.n	1a001950 <_vfiprintf_r+0x50>
1a001b1c:	ab03      	add	r3, sp, #12
1a001b1e:	9300      	str	r3, [sp, #0]
1a001b20:	462a      	mov	r2, r5
1a001b22:	4b0a      	ldr	r3, [pc, #40]	; (1a001b4c <_vfiprintf_r+0x24c>)
1a001b24:	a904      	add	r1, sp, #16
1a001b26:	4638      	mov	r0, r7
1a001b28:	f000 f888 	bl	1a001c3c <_printf_i>
1a001b2c:	e7e3      	b.n	1a001af6 <_vfiprintf_r+0x1f6>
1a001b2e:	bf00      	nop
1a001b30:	1a0028d4 	.word	0x1a0028d4
1a001b34:	1a0028f4 	.word	0x1a0028f4
1a001b38:	1a0028b4 	.word	0x1a0028b4
1a001b3c:	1a002918 	.word	0x1a002918
1a001b40:	1a00291e 	.word	0x1a00291e
1a001b44:	1a002922 	.word	0x1a002922
1a001b48:	00000000 	.word	0x00000000
1a001b4c:	1a0018db 	.word	0x1a0018db

1a001b50 <_printf_common>:
1a001b50:	e92d 47f0 	stmdb	sp!, {r4, r5, r6, r7, r8, r9, sl, lr}
1a001b54:	4691      	mov	r9, r2
1a001b56:	461f      	mov	r7, r3
1a001b58:	688a      	ldr	r2, [r1, #8]
1a001b5a:	690b      	ldr	r3, [r1, #16]
1a001b5c:	f8dd 8020 	ldr.w	r8, [sp, #32]
1a001b60:	4293      	cmp	r3, r2
1a001b62:	bfb8      	it	lt
1a001b64:	4613      	movlt	r3, r2
1a001b66:	f8c9 3000 	str.w	r3, [r9]
1a001b6a:	f891 2043 	ldrb.w	r2, [r1, #67]	; 0x43
1a001b6e:	4606      	mov	r6, r0
1a001b70:	460c      	mov	r4, r1
1a001b72:	b112      	cbz	r2, 1a001b7a <_printf_common+0x2a>
1a001b74:	3301      	adds	r3, #1
1a001b76:	f8c9 3000 	str.w	r3, [r9]
1a001b7a:	6823      	ldr	r3, [r4, #0]
1a001b7c:	0699      	lsls	r1, r3, #26
1a001b7e:	bf42      	ittt	mi
1a001b80:	f8d9 3000 	ldrmi.w	r3, [r9]
1a001b84:	3302      	addmi	r3, #2
1a001b86:	f8c9 3000 	strmi.w	r3, [r9]
1a001b8a:	6825      	ldr	r5, [r4, #0]
1a001b8c:	f015 0506 	ands.w	r5, r5, #6
1a001b90:	d107      	bne.n	1a001ba2 <_printf_common+0x52>
1a001b92:	f104 0a19 	add.w	sl, r4, #25
1a001b96:	68e3      	ldr	r3, [r4, #12]
1a001b98:	f8d9 2000 	ldr.w	r2, [r9]
1a001b9c:	1a9b      	subs	r3, r3, r2
1a001b9e:	42ab      	cmp	r3, r5
1a001ba0:	dc28      	bgt.n	1a001bf4 <_printf_common+0xa4>
1a001ba2:	f894 3043 	ldrb.w	r3, [r4, #67]	; 0x43
1a001ba6:	6822      	ldr	r2, [r4, #0]
1a001ba8:	3300      	adds	r3, #0
1a001baa:	bf18      	it	ne
1a001bac:	2301      	movne	r3, #1
1a001bae:	0692      	lsls	r2, r2, #26
1a001bb0:	d42d      	bmi.n	1a001c0e <_printf_common+0xbe>
1a001bb2:	f104 0243 	add.w	r2, r4, #67	; 0x43
1a001bb6:	4639      	mov	r1, r7
1a001bb8:	4630      	mov	r0, r6
1a001bba:	47c0      	blx	r8
1a001bbc:	3001      	adds	r0, #1
1a001bbe:	d020      	beq.n	1a001c02 <_printf_common+0xb2>
1a001bc0:	6823      	ldr	r3, [r4, #0]
1a001bc2:	68e5      	ldr	r5, [r4, #12]
1a001bc4:	f8d9 2000 	ldr.w	r2, [r9]
1a001bc8:	f003 0306 	and.w	r3, r3, #6
1a001bcc:	2b04      	cmp	r3, #4
1a001bce:	bf08      	it	eq
1a001bd0:	1aad      	subeq	r5, r5, r2
1a001bd2:	68a3      	ldr	r3, [r4, #8]
1a001bd4:	6922      	ldr	r2, [r4, #16]
1a001bd6:	bf0c      	ite	eq
1a001bd8:	ea25 75e5 	biceq.w	r5, r5, r5, asr #31
1a001bdc:	2500      	movne	r5, #0
1a001bde:	4293      	cmp	r3, r2
1a001be0:	bfc4      	itt	gt
1a001be2:	1a9b      	subgt	r3, r3, r2
1a001be4:	18ed      	addgt	r5, r5, r3
1a001be6:	f04f 0900 	mov.w	r9, #0
1a001bea:	341a      	adds	r4, #26
1a001bec:	454d      	cmp	r5, r9
1a001bee:	d11a      	bne.n	1a001c26 <_printf_common+0xd6>
1a001bf0:	2000      	movs	r0, #0
1a001bf2:	e008      	b.n	1a001c06 <_printf_common+0xb6>
1a001bf4:	2301      	movs	r3, #1
1a001bf6:	4652      	mov	r2, sl
1a001bf8:	4639      	mov	r1, r7
1a001bfa:	4630      	mov	r0, r6
1a001bfc:	47c0      	blx	r8
1a001bfe:	3001      	adds	r0, #1
1a001c00:	d103      	bne.n	1a001c0a <_printf_common+0xba>
1a001c02:	f04f 30ff 	mov.w	r0, #4294967295
1a001c06:	e8bd 87f0 	ldmia.w	sp!, {r4, r5, r6, r7, r8, r9, sl, pc}
1a001c0a:	3501      	adds	r5, #1
1a001c0c:	e7c3      	b.n	1a001b96 <_printf_common+0x46>
1a001c0e:	18e1      	adds	r1, r4, r3
1a001c10:	1c5a      	adds	r2, r3, #1
1a001c12:	2030      	movs	r0, #48	; 0x30
1a001c14:	f881 0043 	strb.w	r0, [r1, #67]	; 0x43
1a001c18:	4422      	add	r2, r4
1a001c1a:	f894 1045 	ldrb.w	r1, [r4, #69]	; 0x45
1a001c1e:	f882 1043 	strb.w	r1, [r2, #67]	; 0x43
1a001c22:	3302      	adds	r3, #2
1a001c24:	e7c5      	b.n	1a001bb2 <_printf_common+0x62>
1a001c26:	2301      	movs	r3, #1
1a001c28:	4622      	mov	r2, r4
1a001c2a:	4639      	mov	r1, r7
1a001c2c:	4630      	mov	r0, r6
1a001c2e:	47c0      	blx	r8
1a001c30:	3001      	adds	r0, #1
1a001c32:	d0e6      	beq.n	1a001c02 <_printf_common+0xb2>
1a001c34:	f109 0901 	add.w	r9, r9, #1
1a001c38:	e7d8      	b.n	1a001bec <_printf_common+0x9c>
1a001c3a:	Address 0x1a001c3a is out of bounds.


1a001c3c <_printf_i>:
1a001c3c:	e92d 43f0 	stmdb	sp!, {r4, r5, r6, r7, r8, r9, lr}
1a001c40:	4606      	mov	r6, r0
1a001c42:	460c      	mov	r4, r1
1a001c44:	f101 0043 	add.w	r0, r1, #67	; 0x43
1a001c48:	7e09      	ldrb	r1, [r1, #24]
1a001c4a:	b085      	sub	sp, #20
1a001c4c:	296e      	cmp	r1, #110	; 0x6e
1a001c4e:	4698      	mov	r8, r3
1a001c50:	4617      	mov	r7, r2
1a001c52:	9b0c      	ldr	r3, [sp, #48]	; 0x30
1a001c54:	f000 80ba 	beq.w	1a001dcc <_printf_i+0x190>
1a001c58:	d824      	bhi.n	1a001ca4 <_printf_i+0x68>
1a001c5a:	2963      	cmp	r1, #99	; 0x63
1a001c5c:	d039      	beq.n	1a001cd2 <_printf_i+0x96>
1a001c5e:	d80a      	bhi.n	1a001c76 <_printf_i+0x3a>
1a001c60:	2900      	cmp	r1, #0
1a001c62:	f000 80c3 	beq.w	1a001dec <_printf_i+0x1b0>
1a001c66:	2958      	cmp	r1, #88	; 0x58
1a001c68:	f000 8091 	beq.w	1a001d8e <_printf_i+0x152>
1a001c6c:	f104 0542 	add.w	r5, r4, #66	; 0x42
1a001c70:	f884 1042 	strb.w	r1, [r4, #66]	; 0x42
1a001c74:	e035      	b.n	1a001ce2 <_printf_i+0xa6>
1a001c76:	2964      	cmp	r1, #100	; 0x64
1a001c78:	d001      	beq.n	1a001c7e <_printf_i+0x42>
1a001c7a:	2969      	cmp	r1, #105	; 0x69
1a001c7c:	d1f6      	bne.n	1a001c6c <_printf_i+0x30>
1a001c7e:	6825      	ldr	r5, [r4, #0]
1a001c80:	681a      	ldr	r2, [r3, #0]
1a001c82:	f015 0f80 	tst.w	r5, #128	; 0x80
1a001c86:	f102 0104 	add.w	r1, r2, #4
1a001c8a:	d02c      	beq.n	1a001ce6 <_printf_i+0xaa>
1a001c8c:	6812      	ldr	r2, [r2, #0]
1a001c8e:	6019      	str	r1, [r3, #0]
1a001c90:	2a00      	cmp	r2, #0
1a001c92:	da03      	bge.n	1a001c9c <_printf_i+0x60>
1a001c94:	232d      	movs	r3, #45	; 0x2d
1a001c96:	4252      	negs	r2, r2
1a001c98:	f884 3043 	strb.w	r3, [r4, #67]	; 0x43
1a001c9c:	f8df c1bc 	ldr.w	ip, [pc, #444]	; 1a001e5c <_printf_i+0x220>
1a001ca0:	230a      	movs	r3, #10
1a001ca2:	e03f      	b.n	1a001d24 <_printf_i+0xe8>
1a001ca4:	2973      	cmp	r1, #115	; 0x73
1a001ca6:	f000 80a5 	beq.w	1a001df4 <_printf_i+0x1b8>
1a001caa:	d808      	bhi.n	1a001cbe <_printf_i+0x82>
1a001cac:	296f      	cmp	r1, #111	; 0x6f
1a001cae:	d021      	beq.n	1a001cf4 <_printf_i+0xb8>
1a001cb0:	2970      	cmp	r1, #112	; 0x70
1a001cb2:	d1db      	bne.n	1a001c6c <_printf_i+0x30>
1a001cb4:	6822      	ldr	r2, [r4, #0]
1a001cb6:	f042 0220 	orr.w	r2, r2, #32
1a001cba:	6022      	str	r2, [r4, #0]
1a001cbc:	e003      	b.n	1a001cc6 <_printf_i+0x8a>
1a001cbe:	2975      	cmp	r1, #117	; 0x75
1a001cc0:	d018      	beq.n	1a001cf4 <_printf_i+0xb8>
1a001cc2:	2978      	cmp	r1, #120	; 0x78
1a001cc4:	d1d2      	bne.n	1a001c6c <_printf_i+0x30>
1a001cc6:	2278      	movs	r2, #120	; 0x78
1a001cc8:	f884 2045 	strb.w	r2, [r4, #69]	; 0x45
1a001ccc:	f8df c190 	ldr.w	ip, [pc, #400]	; 1a001e60 <_printf_i+0x224>
1a001cd0:	e061      	b.n	1a001d96 <_printf_i+0x15a>
1a001cd2:	681a      	ldr	r2, [r3, #0]
1a001cd4:	1d11      	adds	r1, r2, #4
1a001cd6:	6019      	str	r1, [r3, #0]
1a001cd8:	6813      	ldr	r3, [r2, #0]
1a001cda:	f884 3042 	strb.w	r3, [r4, #66]	; 0x42
1a001cde:	f104 0542 	add.w	r5, r4, #66	; 0x42
1a001ce2:	2301      	movs	r3, #1
1a001ce4:	e093      	b.n	1a001e0e <_printf_i+0x1d2>
1a001ce6:	6812      	ldr	r2, [r2, #0]
1a001ce8:	6019      	str	r1, [r3, #0]
1a001cea:	f015 0f40 	tst.w	r5, #64	; 0x40
1a001cee:	bf18      	it	ne
1a001cf0:	b212      	sxthne	r2, r2
1a001cf2:	e7cd      	b.n	1a001c90 <_printf_i+0x54>
1a001cf4:	f8d4 c000 	ldr.w	ip, [r4]
1a001cf8:	681a      	ldr	r2, [r3, #0]
1a001cfa:	f01c 0f80 	tst.w	ip, #128	; 0x80
1a001cfe:	f102 0504 	add.w	r5, r2, #4
1a001d02:	601d      	str	r5, [r3, #0]
1a001d04:	d001      	beq.n	1a001d0a <_printf_i+0xce>
1a001d06:	6812      	ldr	r2, [r2, #0]
1a001d08:	e003      	b.n	1a001d12 <_printf_i+0xd6>
1a001d0a:	f01c 0f40 	tst.w	ip, #64	; 0x40
1a001d0e:	d0fa      	beq.n	1a001d06 <_printf_i+0xca>
1a001d10:	8812      	ldrh	r2, [r2, #0]
1a001d12:	f8df c148 	ldr.w	ip, [pc, #328]	; 1a001e5c <_printf_i+0x220>
1a001d16:	296f      	cmp	r1, #111	; 0x6f
1a001d18:	bf0c      	ite	eq
1a001d1a:	2308      	moveq	r3, #8
1a001d1c:	230a      	movne	r3, #10
1a001d1e:	2100      	movs	r1, #0
1a001d20:	f884 1043 	strb.w	r1, [r4, #67]	; 0x43
1a001d24:	6865      	ldr	r5, [r4, #4]
1a001d26:	60a5      	str	r5, [r4, #8]
1a001d28:	2d00      	cmp	r5, #0
1a001d2a:	bfa2      	ittt	ge
1a001d2c:	6821      	ldrge	r1, [r4, #0]
1a001d2e:	f021 0104 	bicge.w	r1, r1, #4
1a001d32:	6021      	strge	r1, [r4, #0]
1a001d34:	b90a      	cbnz	r2, 1a001d3a <_printf_i+0xfe>
1a001d36:	2d00      	cmp	r5, #0
1a001d38:	d046      	beq.n	1a001dc8 <_printf_i+0x18c>
1a001d3a:	4605      	mov	r5, r0
1a001d3c:	fbb2 f1f3 	udiv	r1, r2, r3
1a001d40:	fb03 2e11 	mls	lr, r3, r1, r2
1a001d44:	4293      	cmp	r3, r2
1a001d46:	f81c e00e 	ldrb.w	lr, [ip, lr]
1a001d4a:	f805 ed01 	strb.w	lr, [r5, #-1]!
1a001d4e:	d939      	bls.n	1a001dc4 <_printf_i+0x188>
1a001d50:	2b08      	cmp	r3, #8
1a001d52:	d10b      	bne.n	1a001d6c <_printf_i+0x130>
1a001d54:	6823      	ldr	r3, [r4, #0]
1a001d56:	07da      	lsls	r2, r3, #31
1a001d58:	d508      	bpl.n	1a001d6c <_printf_i+0x130>
1a001d5a:	6923      	ldr	r3, [r4, #16]
1a001d5c:	6862      	ldr	r2, [r4, #4]
1a001d5e:	429a      	cmp	r2, r3
1a001d60:	bfde      	ittt	le
1a001d62:	2330      	movle	r3, #48	; 0x30
1a001d64:	f805 3c01 	strble.w	r3, [r5, #-1]
1a001d68:	f105 35ff 	addle.w	r5, r5, #4294967295
1a001d6c:	1b40      	subs	r0, r0, r5
1a001d6e:	6120      	str	r0, [r4, #16]
1a001d70:	f8cd 8000 	str.w	r8, [sp]
1a001d74:	463b      	mov	r3, r7
1a001d76:	aa03      	add	r2, sp, #12
1a001d78:	4621      	mov	r1, r4
1a001d7a:	4630      	mov	r0, r6
1a001d7c:	f7ff fee8 	bl	1a001b50 <_printf_common>
1a001d80:	3001      	adds	r0, #1
1a001d82:	d149      	bne.n	1a001e18 <_printf_i+0x1dc>
1a001d84:	f04f 30ff 	mov.w	r0, #4294967295
1a001d88:	b005      	add	sp, #20
1a001d8a:	e8bd 83f0 	ldmia.w	sp!, {r4, r5, r6, r7, r8, r9, pc}
1a001d8e:	f8df c0cc 	ldr.w	ip, [pc, #204]	; 1a001e5c <_printf_i+0x220>
1a001d92:	f884 1045 	strb.w	r1, [r4, #69]	; 0x45
1a001d96:	681d      	ldr	r5, [r3, #0]
1a001d98:	6821      	ldr	r1, [r4, #0]
1a001d9a:	f855 2b04 	ldr.w	r2, [r5], #4
1a001d9e:	601d      	str	r5, [r3, #0]
1a001da0:	060d      	lsls	r5, r1, #24
1a001da2:	d50b      	bpl.n	1a001dbc <_printf_i+0x180>
1a001da4:	07cd      	lsls	r5, r1, #31
1a001da6:	bf44      	itt	mi
1a001da8:	f041 0120 	orrmi.w	r1, r1, #32
1a001dac:	6021      	strmi	r1, [r4, #0]
1a001dae:	b91a      	cbnz	r2, 1a001db8 <_printf_i+0x17c>
1a001db0:	6823      	ldr	r3, [r4, #0]
1a001db2:	f023 0320 	bic.w	r3, r3, #32
1a001db6:	6023      	str	r3, [r4, #0]
1a001db8:	2310      	movs	r3, #16
1a001dba:	e7b0      	b.n	1a001d1e <_printf_i+0xe2>
1a001dbc:	064b      	lsls	r3, r1, #25
1a001dbe:	bf48      	it	mi
1a001dc0:	b292      	uxthmi	r2, r2
1a001dc2:	e7ef      	b.n	1a001da4 <_printf_i+0x168>
1a001dc4:	460a      	mov	r2, r1
1a001dc6:	e7b9      	b.n	1a001d3c <_printf_i+0x100>
1a001dc8:	4605      	mov	r5, r0
1a001dca:	e7c1      	b.n	1a001d50 <_printf_i+0x114>
1a001dcc:	681a      	ldr	r2, [r3, #0]
1a001dce:	f8d4 c000 	ldr.w	ip, [r4]
1a001dd2:	6961      	ldr	r1, [r4, #20]
1a001dd4:	1d15      	adds	r5, r2, #4
1a001dd6:	601d      	str	r5, [r3, #0]
1a001dd8:	f01c 0f80 	tst.w	ip, #128	; 0x80
1a001ddc:	6813      	ldr	r3, [r2, #0]
1a001dde:	d001      	beq.n	1a001de4 <_printf_i+0x1a8>
1a001de0:	6019      	str	r1, [r3, #0]
1a001de2:	e003      	b.n	1a001dec <_printf_i+0x1b0>
1a001de4:	f01c 0f40 	tst.w	ip, #64	; 0x40
1a001de8:	d0fa      	beq.n	1a001de0 <_printf_i+0x1a4>
1a001dea:	8019      	strh	r1, [r3, #0]
1a001dec:	2300      	movs	r3, #0
1a001dee:	6123      	str	r3, [r4, #16]
1a001df0:	4605      	mov	r5, r0
1a001df2:	e7bd      	b.n	1a001d70 <_printf_i+0x134>
1a001df4:	681a      	ldr	r2, [r3, #0]
1a001df6:	1d11      	adds	r1, r2, #4
1a001df8:	6019      	str	r1, [r3, #0]
1a001dfa:	6815      	ldr	r5, [r2, #0]
1a001dfc:	6862      	ldr	r2, [r4, #4]
1a001dfe:	2100      	movs	r1, #0
1a001e00:	4628      	mov	r0, r5
1a001e02:	f000 faa5 	bl	1a002350 <memchr>
1a001e06:	b108      	cbz	r0, 1a001e0c <_printf_i+0x1d0>
1a001e08:	1b40      	subs	r0, r0, r5
1a001e0a:	6060      	str	r0, [r4, #4]
1a001e0c:	6863      	ldr	r3, [r4, #4]
1a001e0e:	6123      	str	r3, [r4, #16]
1a001e10:	2300      	movs	r3, #0
1a001e12:	f884 3043 	strb.w	r3, [r4, #67]	; 0x43
1a001e16:	e7ab      	b.n	1a001d70 <_printf_i+0x134>
1a001e18:	6923      	ldr	r3, [r4, #16]
1a001e1a:	462a      	mov	r2, r5
1a001e1c:	4639      	mov	r1, r7
1a001e1e:	4630      	mov	r0, r6
1a001e20:	47c0      	blx	r8
1a001e22:	3001      	adds	r0, #1
1a001e24:	d0ae      	beq.n	1a001d84 <_printf_i+0x148>
1a001e26:	6823      	ldr	r3, [r4, #0]
1a001e28:	079b      	lsls	r3, r3, #30
1a001e2a:	d413      	bmi.n	1a001e54 <_printf_i+0x218>
1a001e2c:	68e0      	ldr	r0, [r4, #12]
1a001e2e:	9b03      	ldr	r3, [sp, #12]
1a001e30:	4298      	cmp	r0, r3
1a001e32:	bfb8      	it	lt
1a001e34:	4618      	movlt	r0, r3
1a001e36:	e7a7      	b.n	1a001d88 <_printf_i+0x14c>
1a001e38:	2301      	movs	r3, #1
1a001e3a:	464a      	mov	r2, r9
1a001e3c:	4639      	mov	r1, r7
1a001e3e:	4630      	mov	r0, r6
1a001e40:	47c0      	blx	r8
1a001e42:	3001      	adds	r0, #1
1a001e44:	d09e      	beq.n	1a001d84 <_printf_i+0x148>
1a001e46:	3501      	adds	r5, #1
1a001e48:	68e3      	ldr	r3, [r4, #12]
1a001e4a:	9a03      	ldr	r2, [sp, #12]
1a001e4c:	1a9b      	subs	r3, r3, r2
1a001e4e:	42ab      	cmp	r3, r5
1a001e50:	dcf2      	bgt.n	1a001e38 <_printf_i+0x1fc>
1a001e52:	e7eb      	b.n	1a001e2c <_printf_i+0x1f0>
1a001e54:	2500      	movs	r5, #0
1a001e56:	f104 0919 	add.w	r9, r4, #25
1a001e5a:	e7f5      	b.n	1a001e48 <_printf_i+0x20c>
1a001e5c:	1a002929 	.word	0x1a002929
1a001e60:	1a00293a 	.word	0x1a00293a

1a001e64 <_putc_r>:
1a001e64:	b570      	push	{r4, r5, r6, lr}
1a001e66:	460d      	mov	r5, r1
1a001e68:	4614      	mov	r4, r2
1a001e6a:	4606      	mov	r6, r0
1a001e6c:	b118      	cbz	r0, 1a001e76 <_putc_r+0x12>
1a001e6e:	6983      	ldr	r3, [r0, #24]
1a001e70:	b90b      	cbnz	r3, 1a001e76 <_putc_r+0x12>
1a001e72:	f7ff fc21 	bl	1a0016b8 <__sinit>
1a001e76:	4b1c      	ldr	r3, [pc, #112]	; (1a001ee8 <_putc_r+0x84>)
1a001e78:	429c      	cmp	r4, r3
1a001e7a:	d124      	bne.n	1a001ec6 <_putc_r+0x62>
1a001e7c:	6874      	ldr	r4, [r6, #4]
1a001e7e:	6e63      	ldr	r3, [r4, #100]	; 0x64
1a001e80:	07d8      	lsls	r0, r3, #31
1a001e82:	d405      	bmi.n	1a001e90 <_putc_r+0x2c>
1a001e84:	89a3      	ldrh	r3, [r4, #12]
1a001e86:	0599      	lsls	r1, r3, #22
1a001e88:	d402      	bmi.n	1a001e90 <_putc_r+0x2c>
1a001e8a:	6da0      	ldr	r0, [r4, #88]	; 0x58
1a001e8c:	f7ff fcb1 	bl	1a0017f2 <__retarget_lock_acquire_recursive>
1a001e90:	68a3      	ldr	r3, [r4, #8]
1a001e92:	3b01      	subs	r3, #1
1a001e94:	2b00      	cmp	r3, #0
1a001e96:	60a3      	str	r3, [r4, #8]
1a001e98:	da05      	bge.n	1a001ea6 <_putc_r+0x42>
1a001e9a:	69a2      	ldr	r2, [r4, #24]
1a001e9c:	4293      	cmp	r3, r2
1a001e9e:	db1c      	blt.n	1a001eda <_putc_r+0x76>
1a001ea0:	b2eb      	uxtb	r3, r5
1a001ea2:	2b0a      	cmp	r3, #10
1a001ea4:	d019      	beq.n	1a001eda <_putc_r+0x76>
1a001ea6:	6823      	ldr	r3, [r4, #0]
1a001ea8:	1c5a      	adds	r2, r3, #1
1a001eaa:	6022      	str	r2, [r4, #0]
1a001eac:	701d      	strb	r5, [r3, #0]
1a001eae:	b2ed      	uxtb	r5, r5
1a001eb0:	6e63      	ldr	r3, [r4, #100]	; 0x64
1a001eb2:	07da      	lsls	r2, r3, #31
1a001eb4:	d405      	bmi.n	1a001ec2 <_putc_r+0x5e>
1a001eb6:	89a3      	ldrh	r3, [r4, #12]
1a001eb8:	059b      	lsls	r3, r3, #22
1a001eba:	d402      	bmi.n	1a001ec2 <_putc_r+0x5e>
1a001ebc:	6da0      	ldr	r0, [r4, #88]	; 0x58
1a001ebe:	f7ff fc99 	bl	1a0017f4 <__retarget_lock_release_recursive>
1a001ec2:	4628      	mov	r0, r5
1a001ec4:	bd70      	pop	{r4, r5, r6, pc}
1a001ec6:	4b09      	ldr	r3, [pc, #36]	; (1a001eec <_putc_r+0x88>)
1a001ec8:	429c      	cmp	r4, r3
1a001eca:	d101      	bne.n	1a001ed0 <_putc_r+0x6c>
1a001ecc:	68b4      	ldr	r4, [r6, #8]
1a001ece:	e7d6      	b.n	1a001e7e <_putc_r+0x1a>
1a001ed0:	4b07      	ldr	r3, [pc, #28]	; (1a001ef0 <_putc_r+0x8c>)
1a001ed2:	429c      	cmp	r4, r3
1a001ed4:	bf08      	it	eq
1a001ed6:	68f4      	ldreq	r4, [r6, #12]
1a001ed8:	e7d1      	b.n	1a001e7e <_putc_r+0x1a>
1a001eda:	4629      	mov	r1, r5
1a001edc:	4622      	mov	r2, r4
1a001ede:	4630      	mov	r0, r6
1a001ee0:	f000 f84c 	bl	1a001f7c <__swbuf_r>
1a001ee4:	4605      	mov	r5, r0
1a001ee6:	e7e3      	b.n	1a001eb0 <_putc_r+0x4c>
1a001ee8:	1a0028d4 	.word	0x1a0028d4
1a001eec:	1a0028f4 	.word	0x1a0028f4
1a001ef0:	1a0028b4 	.word	0x1a0028b4

1a001ef4 <__sread>:
1a001ef4:	b510      	push	{r4, lr}
1a001ef6:	460c      	mov	r4, r1
1a001ef8:	f9b1 100e 	ldrsh.w	r1, [r1, #14]
1a001efc:	f7ff f850 	bl	1a000fa0 <_read_r>
1a001f00:	2800      	cmp	r0, #0
1a001f02:	bfab      	itete	ge
1a001f04:	6d63      	ldrge	r3, [r4, #84]	; 0x54
1a001f06:	89a3      	ldrhlt	r3, [r4, #12]
1a001f08:	181b      	addge	r3, r3, r0
1a001f0a:	f423 5380 	biclt.w	r3, r3, #4096	; 0x1000
1a001f0e:	bfac      	ite	ge
1a001f10:	6563      	strge	r3, [r4, #84]	; 0x54
1a001f12:	81a3      	strhlt	r3, [r4, #12]
1a001f14:	bd10      	pop	{r4, pc}

1a001f16 <__swrite>:
1a001f16:	e92d 41f0 	stmdb	sp!, {r4, r5, r6, r7, r8, lr}
1a001f1a:	461f      	mov	r7, r3
1a001f1c:	898b      	ldrh	r3, [r1, #12]
1a001f1e:	05db      	lsls	r3, r3, #23
1a001f20:	4605      	mov	r5, r0
1a001f22:	460c      	mov	r4, r1
1a001f24:	4616      	mov	r6, r2
1a001f26:	d505      	bpl.n	1a001f34 <__swrite+0x1e>
1a001f28:	2302      	movs	r3, #2
1a001f2a:	2200      	movs	r2, #0
1a001f2c:	f9b1 100e 	ldrsh.w	r1, [r1, #14]
1a001f30:	f7ff f831 	bl	1a000f96 <_lseek_r>
1a001f34:	89a3      	ldrh	r3, [r4, #12]
1a001f36:	f9b4 100e 	ldrsh.w	r1, [r4, #14]
1a001f3a:	f423 5380 	bic.w	r3, r3, #4096	; 0x1000
1a001f3e:	81a3      	strh	r3, [r4, #12]
1a001f40:	4632      	mov	r2, r6
1a001f42:	463b      	mov	r3, r7
1a001f44:	4628      	mov	r0, r5
1a001f46:	e8bd 41f0 	ldmia.w	sp!, {r4, r5, r6, r7, r8, lr}
1a001f4a:	f7ff b84d 	b.w	1a000fe8 <_write_r>

1a001f4e <__sseek>:
1a001f4e:	b510      	push	{r4, lr}
1a001f50:	460c      	mov	r4, r1
1a001f52:	f9b1 100e 	ldrsh.w	r1, [r1, #14]
1a001f56:	f7ff f81e 	bl	1a000f96 <_lseek_r>
1a001f5a:	1c43      	adds	r3, r0, #1
1a001f5c:	89a3      	ldrh	r3, [r4, #12]
1a001f5e:	bf15      	itete	ne
1a001f60:	6560      	strne	r0, [r4, #84]	; 0x54
1a001f62:	f423 5380 	biceq.w	r3, r3, #4096	; 0x1000
1a001f66:	f443 5380 	orrne.w	r3, r3, #4096	; 0x1000
1a001f6a:	81a3      	strheq	r3, [r4, #12]
1a001f6c:	bf18      	it	ne
1a001f6e:	81a3      	strhne	r3, [r4, #12]
1a001f70:	bd10      	pop	{r4, pc}

1a001f72 <__sclose>:
1a001f72:	f9b1 100e 	ldrsh.w	r1, [r1, #14]
1a001f76:	f7fe bffb 	b.w	1a000f70 <_close_r>
1a001f7a:	Address 0x1a001f7a is out of bounds.


1a001f7c <__swbuf_r>:
1a001f7c:	b5f8      	push	{r3, r4, r5, r6, r7, lr}
1a001f7e:	460e      	mov	r6, r1
1a001f80:	4614      	mov	r4, r2
1a001f82:	4605      	mov	r5, r0
1a001f84:	b118      	cbz	r0, 1a001f8e <__swbuf_r+0x12>
1a001f86:	6983      	ldr	r3, [r0, #24]
1a001f88:	b90b      	cbnz	r3, 1a001f8e <__swbuf_r+0x12>
1a001f8a:	f7ff fb95 	bl	1a0016b8 <__sinit>
1a001f8e:	4b21      	ldr	r3, [pc, #132]	; (1a002014 <__swbuf_r+0x98>)
1a001f90:	429c      	cmp	r4, r3
1a001f92:	d12b      	bne.n	1a001fec <__swbuf_r+0x70>
1a001f94:	686c      	ldr	r4, [r5, #4]
1a001f96:	69a3      	ldr	r3, [r4, #24]
1a001f98:	60a3      	str	r3, [r4, #8]
1a001f9a:	89a3      	ldrh	r3, [r4, #12]
1a001f9c:	071a      	lsls	r2, r3, #28
1a001f9e:	d52f      	bpl.n	1a002000 <__swbuf_r+0x84>
1a001fa0:	6923      	ldr	r3, [r4, #16]
1a001fa2:	b36b      	cbz	r3, 1a002000 <__swbuf_r+0x84>
1a001fa4:	6923      	ldr	r3, [r4, #16]
1a001fa6:	6820      	ldr	r0, [r4, #0]
1a001fa8:	1ac0      	subs	r0, r0, r3
1a001faa:	6963      	ldr	r3, [r4, #20]
1a001fac:	b2f6      	uxtb	r6, r6
1a001fae:	4283      	cmp	r3, r0
1a001fb0:	4637      	mov	r7, r6
1a001fb2:	dc04      	bgt.n	1a001fbe <__swbuf_r+0x42>
1a001fb4:	4621      	mov	r1, r4
1a001fb6:	4628      	mov	r0, r5
1a001fb8:	f000 f926 	bl	1a002208 <_fflush_r>
1a001fbc:	bb30      	cbnz	r0, 1a00200c <__swbuf_r+0x90>
1a001fbe:	68a3      	ldr	r3, [r4, #8]
1a001fc0:	3b01      	subs	r3, #1
1a001fc2:	60a3      	str	r3, [r4, #8]
1a001fc4:	6823      	ldr	r3, [r4, #0]
1a001fc6:	1c5a      	adds	r2, r3, #1
1a001fc8:	6022      	str	r2, [r4, #0]
1a001fca:	701e      	strb	r6, [r3, #0]
1a001fcc:	6963      	ldr	r3, [r4, #20]
1a001fce:	3001      	adds	r0, #1
1a001fd0:	4283      	cmp	r3, r0
1a001fd2:	d004      	beq.n	1a001fde <__swbuf_r+0x62>
1a001fd4:	89a3      	ldrh	r3, [r4, #12]
1a001fd6:	07db      	lsls	r3, r3, #31
1a001fd8:	d506      	bpl.n	1a001fe8 <__swbuf_r+0x6c>
1a001fda:	2e0a      	cmp	r6, #10
1a001fdc:	d104      	bne.n	1a001fe8 <__swbuf_r+0x6c>
1a001fde:	4621      	mov	r1, r4
1a001fe0:	4628      	mov	r0, r5
1a001fe2:	f000 f911 	bl	1a002208 <_fflush_r>
1a001fe6:	b988      	cbnz	r0, 1a00200c <__swbuf_r+0x90>
1a001fe8:	4638      	mov	r0, r7
1a001fea:	bdf8      	pop	{r3, r4, r5, r6, r7, pc}
1a001fec:	4b0a      	ldr	r3, [pc, #40]	; (1a002018 <__swbuf_r+0x9c>)
1a001fee:	429c      	cmp	r4, r3
1a001ff0:	d101      	bne.n	1a001ff6 <__swbuf_r+0x7a>
1a001ff2:	68ac      	ldr	r4, [r5, #8]
1a001ff4:	e7cf      	b.n	1a001f96 <__swbuf_r+0x1a>
1a001ff6:	4b09      	ldr	r3, [pc, #36]	; (1a00201c <__swbuf_r+0xa0>)
1a001ff8:	429c      	cmp	r4, r3
1a001ffa:	bf08      	it	eq
1a001ffc:	68ec      	ldreq	r4, [r5, #12]
1a001ffe:	e7ca      	b.n	1a001f96 <__swbuf_r+0x1a>
1a002000:	4621      	mov	r1, r4
1a002002:	4628      	mov	r0, r5
1a002004:	f000 f80c 	bl	1a002020 <__swsetup_r>
1a002008:	2800      	cmp	r0, #0
1a00200a:	d0cb      	beq.n	1a001fa4 <__swbuf_r+0x28>
1a00200c:	f04f 37ff 	mov.w	r7, #4294967295
1a002010:	e7ea      	b.n	1a001fe8 <__swbuf_r+0x6c>
1a002012:	bf00      	nop
1a002014:	1a0028d4 	.word	0x1a0028d4
1a002018:	1a0028f4 	.word	0x1a0028f4
1a00201c:	1a0028b4 	.word	0x1a0028b4

1a002020 <__swsetup_r>:
1a002020:	4b32      	ldr	r3, [pc, #200]	; (1a0020ec <__swsetup_r+0xcc>)
1a002022:	b570      	push	{r4, r5, r6, lr}
1a002024:	681d      	ldr	r5, [r3, #0]
1a002026:	4606      	mov	r6, r0
1a002028:	460c      	mov	r4, r1
1a00202a:	b125      	cbz	r5, 1a002036 <__swsetup_r+0x16>
1a00202c:	69ab      	ldr	r3, [r5, #24]
1a00202e:	b913      	cbnz	r3, 1a002036 <__swsetup_r+0x16>
1a002030:	4628      	mov	r0, r5
1a002032:	f7ff fb41 	bl	1a0016b8 <__sinit>
1a002036:	4b2e      	ldr	r3, [pc, #184]	; (1a0020f0 <__swsetup_r+0xd0>)
1a002038:	429c      	cmp	r4, r3
1a00203a:	d10f      	bne.n	1a00205c <__swsetup_r+0x3c>
1a00203c:	686c      	ldr	r4, [r5, #4]
1a00203e:	f9b4 300c 	ldrsh.w	r3, [r4, #12]
1a002042:	b29a      	uxth	r2, r3
1a002044:	0715      	lsls	r5, r2, #28
1a002046:	d42c      	bmi.n	1a0020a2 <__swsetup_r+0x82>
1a002048:	06d0      	lsls	r0, r2, #27
1a00204a:	d411      	bmi.n	1a002070 <__swsetup_r+0x50>
1a00204c:	2209      	movs	r2, #9
1a00204e:	6032      	str	r2, [r6, #0]
1a002050:	f043 0340 	orr.w	r3, r3, #64	; 0x40
1a002054:	81a3      	strh	r3, [r4, #12]
1a002056:	f04f 30ff 	mov.w	r0, #4294967295
1a00205a:	e03e      	b.n	1a0020da <__swsetup_r+0xba>
1a00205c:	4b25      	ldr	r3, [pc, #148]	; (1a0020f4 <__swsetup_r+0xd4>)
1a00205e:	429c      	cmp	r4, r3
1a002060:	d101      	bne.n	1a002066 <__swsetup_r+0x46>
1a002062:	68ac      	ldr	r4, [r5, #8]
1a002064:	e7eb      	b.n	1a00203e <__swsetup_r+0x1e>
1a002066:	4b24      	ldr	r3, [pc, #144]	; (1a0020f8 <__swsetup_r+0xd8>)
1a002068:	429c      	cmp	r4, r3
1a00206a:	bf08      	it	eq
1a00206c:	68ec      	ldreq	r4, [r5, #12]
1a00206e:	e7e6      	b.n	1a00203e <__swsetup_r+0x1e>
1a002070:	0751      	lsls	r1, r2, #29
1a002072:	d512      	bpl.n	1a00209a <__swsetup_r+0x7a>
1a002074:	6b61      	ldr	r1, [r4, #52]	; 0x34
1a002076:	b141      	cbz	r1, 1a00208a <__swsetup_r+0x6a>
1a002078:	f104 0344 	add.w	r3, r4, #68	; 0x44
1a00207c:	4299      	cmp	r1, r3
1a00207e:	d002      	beq.n	1a002086 <__swsetup_r+0x66>
1a002080:	4630      	mov	r0, r6
1a002082:	f000 f9c1 	bl	1a002408 <_free_r>
1a002086:	2300      	movs	r3, #0
1a002088:	6363      	str	r3, [r4, #52]	; 0x34
1a00208a:	89a3      	ldrh	r3, [r4, #12]
1a00208c:	f023 0324 	bic.w	r3, r3, #36	; 0x24
1a002090:	81a3      	strh	r3, [r4, #12]
1a002092:	2300      	movs	r3, #0
1a002094:	6063      	str	r3, [r4, #4]
1a002096:	6923      	ldr	r3, [r4, #16]
1a002098:	6023      	str	r3, [r4, #0]
1a00209a:	89a3      	ldrh	r3, [r4, #12]
1a00209c:	f043 0308 	orr.w	r3, r3, #8
1a0020a0:	81a3      	strh	r3, [r4, #12]
1a0020a2:	6923      	ldr	r3, [r4, #16]
1a0020a4:	b94b      	cbnz	r3, 1a0020ba <__swsetup_r+0x9a>
1a0020a6:	89a3      	ldrh	r3, [r4, #12]
1a0020a8:	f403 7320 	and.w	r3, r3, #640	; 0x280
1a0020ac:	f5b3 7f00 	cmp.w	r3, #512	; 0x200
1a0020b0:	d003      	beq.n	1a0020ba <__swsetup_r+0x9a>
1a0020b2:	4621      	mov	r1, r4
1a0020b4:	4630      	mov	r0, r6
1a0020b6:	f000 f907 	bl	1a0022c8 <__smakebuf_r>
1a0020ba:	89a2      	ldrh	r2, [r4, #12]
1a0020bc:	f012 0301 	ands.w	r3, r2, #1
1a0020c0:	d00c      	beq.n	1a0020dc <__swsetup_r+0xbc>
1a0020c2:	2300      	movs	r3, #0
1a0020c4:	60a3      	str	r3, [r4, #8]
1a0020c6:	6963      	ldr	r3, [r4, #20]
1a0020c8:	425b      	negs	r3, r3
1a0020ca:	61a3      	str	r3, [r4, #24]
1a0020cc:	6923      	ldr	r3, [r4, #16]
1a0020ce:	b953      	cbnz	r3, 1a0020e6 <__swsetup_r+0xc6>
1a0020d0:	f9b4 300c 	ldrsh.w	r3, [r4, #12]
1a0020d4:	f013 0080 	ands.w	r0, r3, #128	; 0x80
1a0020d8:	d1ba      	bne.n	1a002050 <__swsetup_r+0x30>
1a0020da:	bd70      	pop	{r4, r5, r6, pc}
1a0020dc:	0792      	lsls	r2, r2, #30
1a0020de:	bf58      	it	pl
1a0020e0:	6963      	ldrpl	r3, [r4, #20]
1a0020e2:	60a3      	str	r3, [r4, #8]
1a0020e4:	e7f2      	b.n	1a0020cc <__swsetup_r+0xac>
1a0020e6:	2000      	movs	r0, #0
1a0020e8:	e7f7      	b.n	1a0020da <__swsetup_r+0xba>
1a0020ea:	bf00      	nop
1a0020ec:	10000070 	.word	0x10000070
1a0020f0:	1a0028d4 	.word	0x1a0028d4
1a0020f4:	1a0028f4 	.word	0x1a0028f4
1a0020f8:	1a0028b4 	.word	0x1a0028b4

1a0020fc <__sflush_r>:
1a0020fc:	898a      	ldrh	r2, [r1, #12]
1a0020fe:	e92d 41f0 	stmdb	sp!, {r4, r5, r6, r7, r8, lr}
1a002102:	4605      	mov	r5, r0
1a002104:	0710      	lsls	r0, r2, #28
1a002106:	460c      	mov	r4, r1
1a002108:	d458      	bmi.n	1a0021bc <__sflush_r+0xc0>
1a00210a:	684b      	ldr	r3, [r1, #4]
1a00210c:	2b00      	cmp	r3, #0
1a00210e:	dc05      	bgt.n	1a00211c <__sflush_r+0x20>
1a002110:	6c0b      	ldr	r3, [r1, #64]	; 0x40
1a002112:	2b00      	cmp	r3, #0
1a002114:	dc02      	bgt.n	1a00211c <__sflush_r+0x20>
1a002116:	2000      	movs	r0, #0
1a002118:	e8bd 81f0 	ldmia.w	sp!, {r4, r5, r6, r7, r8, pc}
1a00211c:	6ae6      	ldr	r6, [r4, #44]	; 0x2c
1a00211e:	2e00      	cmp	r6, #0
1a002120:	d0f9      	beq.n	1a002116 <__sflush_r+0x1a>
1a002122:	2300      	movs	r3, #0
1a002124:	f412 5280 	ands.w	r2, r2, #4096	; 0x1000
1a002128:	682f      	ldr	r7, [r5, #0]
1a00212a:	602b      	str	r3, [r5, #0]
1a00212c:	d032      	beq.n	1a002194 <__sflush_r+0x98>
1a00212e:	6d60      	ldr	r0, [r4, #84]	; 0x54
1a002130:	89a3      	ldrh	r3, [r4, #12]
1a002132:	075a      	lsls	r2, r3, #29
1a002134:	d505      	bpl.n	1a002142 <__sflush_r+0x46>
1a002136:	6863      	ldr	r3, [r4, #4]
1a002138:	1ac0      	subs	r0, r0, r3
1a00213a:	6b63      	ldr	r3, [r4, #52]	; 0x34
1a00213c:	b10b      	cbz	r3, 1a002142 <__sflush_r+0x46>
1a00213e:	6c23      	ldr	r3, [r4, #64]	; 0x40
1a002140:	1ac0      	subs	r0, r0, r3
1a002142:	2300      	movs	r3, #0
1a002144:	4602      	mov	r2, r0
1a002146:	6ae6      	ldr	r6, [r4, #44]	; 0x2c
1a002148:	6a21      	ldr	r1, [r4, #32]
1a00214a:	4628      	mov	r0, r5
1a00214c:	47b0      	blx	r6
1a00214e:	1c43      	adds	r3, r0, #1
1a002150:	89a3      	ldrh	r3, [r4, #12]
1a002152:	d106      	bne.n	1a002162 <__sflush_r+0x66>
1a002154:	6829      	ldr	r1, [r5, #0]
1a002156:	291d      	cmp	r1, #29
1a002158:	d849      	bhi.n	1a0021ee <__sflush_r+0xf2>
1a00215a:	4a2a      	ldr	r2, [pc, #168]	; (1a002204 <__sflush_r+0x108>)
1a00215c:	40ca      	lsrs	r2, r1
1a00215e:	07d6      	lsls	r6, r2, #31
1a002160:	d545      	bpl.n	1a0021ee <__sflush_r+0xf2>
1a002162:	2200      	movs	r2, #0
1a002164:	6062      	str	r2, [r4, #4]
1a002166:	04d9      	lsls	r1, r3, #19
1a002168:	6922      	ldr	r2, [r4, #16]
1a00216a:	6022      	str	r2, [r4, #0]
1a00216c:	d504      	bpl.n	1a002178 <__sflush_r+0x7c>
1a00216e:	1c42      	adds	r2, r0, #1
1a002170:	d101      	bne.n	1a002176 <__sflush_r+0x7a>
1a002172:	682b      	ldr	r3, [r5, #0]
1a002174:	b903      	cbnz	r3, 1a002178 <__sflush_r+0x7c>
1a002176:	6560      	str	r0, [r4, #84]	; 0x54
1a002178:	6b61      	ldr	r1, [r4, #52]	; 0x34
1a00217a:	602f      	str	r7, [r5, #0]
1a00217c:	2900      	cmp	r1, #0
1a00217e:	d0ca      	beq.n	1a002116 <__sflush_r+0x1a>
1a002180:	f104 0344 	add.w	r3, r4, #68	; 0x44
1a002184:	4299      	cmp	r1, r3
1a002186:	d002      	beq.n	1a00218e <__sflush_r+0x92>
1a002188:	4628      	mov	r0, r5
1a00218a:	f000 f93d 	bl	1a002408 <_free_r>
1a00218e:	2000      	movs	r0, #0
1a002190:	6360      	str	r0, [r4, #52]	; 0x34
1a002192:	e7c1      	b.n	1a002118 <__sflush_r+0x1c>
1a002194:	6a21      	ldr	r1, [r4, #32]
1a002196:	2301      	movs	r3, #1
1a002198:	4628      	mov	r0, r5
1a00219a:	47b0      	blx	r6
1a00219c:	1c41      	adds	r1, r0, #1
1a00219e:	d1c7      	bne.n	1a002130 <__sflush_r+0x34>
1a0021a0:	682b      	ldr	r3, [r5, #0]
1a0021a2:	2b00      	cmp	r3, #0
1a0021a4:	d0c4      	beq.n	1a002130 <__sflush_r+0x34>
1a0021a6:	2b1d      	cmp	r3, #29
1a0021a8:	d001      	beq.n	1a0021ae <__sflush_r+0xb2>
1a0021aa:	2b16      	cmp	r3, #22
1a0021ac:	d101      	bne.n	1a0021b2 <__sflush_r+0xb6>
1a0021ae:	602f      	str	r7, [r5, #0]
1a0021b0:	e7b1      	b.n	1a002116 <__sflush_r+0x1a>
1a0021b2:	89a3      	ldrh	r3, [r4, #12]
1a0021b4:	f043 0340 	orr.w	r3, r3, #64	; 0x40
1a0021b8:	81a3      	strh	r3, [r4, #12]
1a0021ba:	e7ad      	b.n	1a002118 <__sflush_r+0x1c>
1a0021bc:	690f      	ldr	r7, [r1, #16]
1a0021be:	2f00      	cmp	r7, #0
1a0021c0:	d0a9      	beq.n	1a002116 <__sflush_r+0x1a>
1a0021c2:	0793      	lsls	r3, r2, #30
1a0021c4:	680e      	ldr	r6, [r1, #0]
1a0021c6:	bf08      	it	eq
1a0021c8:	694b      	ldreq	r3, [r1, #20]
1a0021ca:	600f      	str	r7, [r1, #0]
1a0021cc:	bf18      	it	ne
1a0021ce:	2300      	movne	r3, #0
1a0021d0:	eba6 0807 	sub.w	r8, r6, r7
1a0021d4:	608b      	str	r3, [r1, #8]
1a0021d6:	f1b8 0f00 	cmp.w	r8, #0
1a0021da:	dd9c      	ble.n	1a002116 <__sflush_r+0x1a>
1a0021dc:	4643      	mov	r3, r8
1a0021de:	463a      	mov	r2, r7
1a0021e0:	6a21      	ldr	r1, [r4, #32]
1a0021e2:	6aa6      	ldr	r6, [r4, #40]	; 0x28
1a0021e4:	4628      	mov	r0, r5
1a0021e6:	47b0      	blx	r6
1a0021e8:	2800      	cmp	r0, #0
1a0021ea:	dc06      	bgt.n	1a0021fa <__sflush_r+0xfe>
1a0021ec:	89a3      	ldrh	r3, [r4, #12]
1a0021ee:	f043 0340 	orr.w	r3, r3, #64	; 0x40
1a0021f2:	81a3      	strh	r3, [r4, #12]
1a0021f4:	f04f 30ff 	mov.w	r0, #4294967295
1a0021f8:	e78e      	b.n	1a002118 <__sflush_r+0x1c>
1a0021fa:	4407      	add	r7, r0
1a0021fc:	eba8 0800 	sub.w	r8, r8, r0
1a002200:	e7e9      	b.n	1a0021d6 <__sflush_r+0xda>
1a002202:	bf00      	nop
1a002204:	20400001 	.word	0x20400001

1a002208 <_fflush_r>:
1a002208:	b538      	push	{r3, r4, r5, lr}
1a00220a:	690b      	ldr	r3, [r1, #16]
1a00220c:	4605      	mov	r5, r0
1a00220e:	460c      	mov	r4, r1
1a002210:	b913      	cbnz	r3, 1a002218 <_fflush_r+0x10>
1a002212:	2500      	movs	r5, #0
1a002214:	4628      	mov	r0, r5
1a002216:	bd38      	pop	{r3, r4, r5, pc}
1a002218:	b118      	cbz	r0, 1a002222 <_fflush_r+0x1a>
1a00221a:	6983      	ldr	r3, [r0, #24]
1a00221c:	b90b      	cbnz	r3, 1a002222 <_fflush_r+0x1a>
1a00221e:	f7ff fa4b 	bl	1a0016b8 <__sinit>
1a002222:	4b14      	ldr	r3, [pc, #80]	; (1a002274 <_fflush_r+0x6c>)
1a002224:	429c      	cmp	r4, r3
1a002226:	d11b      	bne.n	1a002260 <_fflush_r+0x58>
1a002228:	686c      	ldr	r4, [r5, #4]
1a00222a:	f9b4 300c 	ldrsh.w	r3, [r4, #12]
1a00222e:	2b00      	cmp	r3, #0
1a002230:	d0ef      	beq.n	1a002212 <_fflush_r+0xa>
1a002232:	6e62      	ldr	r2, [r4, #100]	; 0x64
1a002234:	07d0      	lsls	r0, r2, #31
1a002236:	d404      	bmi.n	1a002242 <_fflush_r+0x3a>
1a002238:	0599      	lsls	r1, r3, #22
1a00223a:	d402      	bmi.n	1a002242 <_fflush_r+0x3a>
1a00223c:	6da0      	ldr	r0, [r4, #88]	; 0x58
1a00223e:	f7ff fad8 	bl	1a0017f2 <__retarget_lock_acquire_recursive>
1a002242:	4628      	mov	r0, r5
1a002244:	4621      	mov	r1, r4
1a002246:	f7ff ff59 	bl	1a0020fc <__sflush_r>
1a00224a:	6e63      	ldr	r3, [r4, #100]	; 0x64
1a00224c:	07da      	lsls	r2, r3, #31
1a00224e:	4605      	mov	r5, r0
1a002250:	d4e0      	bmi.n	1a002214 <_fflush_r+0xc>
1a002252:	89a3      	ldrh	r3, [r4, #12]
1a002254:	059b      	lsls	r3, r3, #22
1a002256:	d4dd      	bmi.n	1a002214 <_fflush_r+0xc>
1a002258:	6da0      	ldr	r0, [r4, #88]	; 0x58
1a00225a:	f7ff facb 	bl	1a0017f4 <__retarget_lock_release_recursive>
1a00225e:	e7d9      	b.n	1a002214 <_fflush_r+0xc>
1a002260:	4b05      	ldr	r3, [pc, #20]	; (1a002278 <_fflush_r+0x70>)
1a002262:	429c      	cmp	r4, r3
1a002264:	d101      	bne.n	1a00226a <_fflush_r+0x62>
1a002266:	68ac      	ldr	r4, [r5, #8]
1a002268:	e7df      	b.n	1a00222a <_fflush_r+0x22>
1a00226a:	4b04      	ldr	r3, [pc, #16]	; (1a00227c <_fflush_r+0x74>)
1a00226c:	429c      	cmp	r4, r3
1a00226e:	bf08      	it	eq
1a002270:	68ec      	ldreq	r4, [r5, #12]
1a002272:	e7da      	b.n	1a00222a <_fflush_r+0x22>
1a002274:	1a0028d4 	.word	0x1a0028d4
1a002278:	1a0028f4 	.word	0x1a0028f4
1a00227c:	1a0028b4 	.word	0x1a0028b4

1a002280 <__swhatbuf_r>:
1a002280:	b570      	push	{r4, r5, r6, lr}
1a002282:	460e      	mov	r6, r1
1a002284:	f9b1 100e 	ldrsh.w	r1, [r1, #14]
1a002288:	2900      	cmp	r1, #0
1a00228a:	b096      	sub	sp, #88	; 0x58
1a00228c:	4614      	mov	r4, r2
1a00228e:	461d      	mov	r5, r3
1a002290:	da07      	bge.n	1a0022a2 <__swhatbuf_r+0x22>
1a002292:	2300      	movs	r3, #0
1a002294:	602b      	str	r3, [r5, #0]
1a002296:	89b3      	ldrh	r3, [r6, #12]
1a002298:	061a      	lsls	r2, r3, #24
1a00229a:	d410      	bmi.n	1a0022be <__swhatbuf_r+0x3e>
1a00229c:	f44f 6380 	mov.w	r3, #1024	; 0x400
1a0022a0:	e00e      	b.n	1a0022c0 <__swhatbuf_r+0x40>
1a0022a2:	466a      	mov	r2, sp
1a0022a4:	f7fe fe69 	bl	1a000f7a <_fstat_r>
1a0022a8:	2800      	cmp	r0, #0
1a0022aa:	dbf2      	blt.n	1a002292 <__swhatbuf_r+0x12>
1a0022ac:	9a01      	ldr	r2, [sp, #4]
1a0022ae:	f402 4270 	and.w	r2, r2, #61440	; 0xf000
1a0022b2:	f5a2 5300 	sub.w	r3, r2, #8192	; 0x2000
1a0022b6:	425a      	negs	r2, r3
1a0022b8:	415a      	adcs	r2, r3
1a0022ba:	602a      	str	r2, [r5, #0]
1a0022bc:	e7ee      	b.n	1a00229c <__swhatbuf_r+0x1c>
1a0022be:	2340      	movs	r3, #64	; 0x40
1a0022c0:	2000      	movs	r0, #0
1a0022c2:	6023      	str	r3, [r4, #0]
1a0022c4:	b016      	add	sp, #88	; 0x58
1a0022c6:	bd70      	pop	{r4, r5, r6, pc}

1a0022c8 <__smakebuf_r>:
1a0022c8:	898b      	ldrh	r3, [r1, #12]
1a0022ca:	b573      	push	{r0, r1, r4, r5, r6, lr}
1a0022cc:	079d      	lsls	r5, r3, #30
1a0022ce:	4606      	mov	r6, r0
1a0022d0:	460c      	mov	r4, r1
1a0022d2:	d507      	bpl.n	1a0022e4 <__smakebuf_r+0x1c>
1a0022d4:	f104 0347 	add.w	r3, r4, #71	; 0x47
1a0022d8:	6023      	str	r3, [r4, #0]
1a0022da:	6123      	str	r3, [r4, #16]
1a0022dc:	2301      	movs	r3, #1
1a0022de:	6163      	str	r3, [r4, #20]
1a0022e0:	b002      	add	sp, #8
1a0022e2:	bd70      	pop	{r4, r5, r6, pc}
1a0022e4:	ab01      	add	r3, sp, #4
1a0022e6:	466a      	mov	r2, sp
1a0022e8:	f7ff ffca 	bl	1a002280 <__swhatbuf_r>
1a0022ec:	9900      	ldr	r1, [sp, #0]
1a0022ee:	4605      	mov	r5, r0
1a0022f0:	4630      	mov	r0, r6
1a0022f2:	f7ff fa81 	bl	1a0017f8 <_malloc_r>
1a0022f6:	b948      	cbnz	r0, 1a00230c <__smakebuf_r+0x44>
1a0022f8:	f9b4 300c 	ldrsh.w	r3, [r4, #12]
1a0022fc:	059a      	lsls	r2, r3, #22
1a0022fe:	d4ef      	bmi.n	1a0022e0 <__smakebuf_r+0x18>
1a002300:	f023 0303 	bic.w	r3, r3, #3
1a002304:	f043 0302 	orr.w	r3, r3, #2
1a002308:	81a3      	strh	r3, [r4, #12]
1a00230a:	e7e3      	b.n	1a0022d4 <__smakebuf_r+0xc>
1a00230c:	4b0d      	ldr	r3, [pc, #52]	; (1a002344 <__smakebuf_r+0x7c>)
1a00230e:	62b3      	str	r3, [r6, #40]	; 0x28
1a002310:	89a3      	ldrh	r3, [r4, #12]
1a002312:	6020      	str	r0, [r4, #0]
1a002314:	f043 0380 	orr.w	r3, r3, #128	; 0x80
1a002318:	81a3      	strh	r3, [r4, #12]
1a00231a:	9b00      	ldr	r3, [sp, #0]
1a00231c:	6163      	str	r3, [r4, #20]
1a00231e:	9b01      	ldr	r3, [sp, #4]
1a002320:	6120      	str	r0, [r4, #16]
1a002322:	b15b      	cbz	r3, 1a00233c <__smakebuf_r+0x74>
1a002324:	f9b4 100e 	ldrsh.w	r1, [r4, #14]
1a002328:	4630      	mov	r0, r6
1a00232a:	f7fe fe2b 	bl	1a000f84 <_isatty_r>
1a00232e:	b128      	cbz	r0, 1a00233c <__smakebuf_r+0x74>
1a002330:	89a3      	ldrh	r3, [r4, #12]
1a002332:	f023 0303 	bic.w	r3, r3, #3
1a002336:	f043 0301 	orr.w	r3, r3, #1
1a00233a:	81a3      	strh	r3, [r4, #12]
1a00233c:	89a3      	ldrh	r3, [r4, #12]
1a00233e:	431d      	orrs	r5, r3
1a002340:	81a5      	strh	r5, [r4, #12]
1a002342:	e7cd      	b.n	1a0022e0 <__smakebuf_r+0x18>
1a002344:	1a001651 	.word	0x1a001651
1a002348:	ffffffff 	.word	0xffffffff
1a00234c:	ffffffff 	.word	0xffffffff

1a002350 <memchr>:
1a002350:	f001 01ff 	and.w	r1, r1, #255	; 0xff
1a002354:	2a10      	cmp	r2, #16
1a002356:	db2b      	blt.n	1a0023b0 <memchr+0x60>
1a002358:	f010 0f07 	tst.w	r0, #7
1a00235c:	d008      	beq.n	1a002370 <memchr+0x20>
1a00235e:	f810 3b01 	ldrb.w	r3, [r0], #1
1a002362:	3a01      	subs	r2, #1
1a002364:	428b      	cmp	r3, r1
1a002366:	d02d      	beq.n	1a0023c4 <memchr+0x74>
1a002368:	f010 0f07 	tst.w	r0, #7
1a00236c:	b342      	cbz	r2, 1a0023c0 <memchr+0x70>
1a00236e:	d1f6      	bne.n	1a00235e <memchr+0xe>
1a002370:	b4f0      	push	{r4, r5, r6, r7}
1a002372:	ea41 2101 	orr.w	r1, r1, r1, lsl #8
1a002376:	ea41 4101 	orr.w	r1, r1, r1, lsl #16
1a00237a:	f022 0407 	bic.w	r4, r2, #7
1a00237e:	f07f 0700 	mvns.w	r7, #0
1a002382:	2300      	movs	r3, #0
1a002384:	e8f0 5602 	ldrd	r5, r6, [r0], #8
1a002388:	3c08      	subs	r4, #8
1a00238a:	ea85 0501 	eor.w	r5, r5, r1
1a00238e:	ea86 0601 	eor.w	r6, r6, r1
1a002392:	fa85 f547 	uadd8	r5, r5, r7
1a002396:	faa3 f587 	sel	r5, r3, r7
1a00239a:	fa86 f647 	uadd8	r6, r6, r7
1a00239e:	faa5 f687 	sel	r6, r5, r7
1a0023a2:	b98e      	cbnz	r6, 1a0023c8 <memchr+0x78>
1a0023a4:	d1ee      	bne.n	1a002384 <memchr+0x34>
1a0023a6:	bcf0      	pop	{r4, r5, r6, r7}
1a0023a8:	f001 01ff 	and.w	r1, r1, #255	; 0xff
1a0023ac:	f002 0207 	and.w	r2, r2, #7
1a0023b0:	b132      	cbz	r2, 1a0023c0 <memchr+0x70>
1a0023b2:	f810 3b01 	ldrb.w	r3, [r0], #1
1a0023b6:	3a01      	subs	r2, #1
1a0023b8:	ea83 0301 	eor.w	r3, r3, r1
1a0023bc:	b113      	cbz	r3, 1a0023c4 <memchr+0x74>
1a0023be:	d1f8      	bne.n	1a0023b2 <memchr+0x62>
1a0023c0:	2000      	movs	r0, #0
1a0023c2:	4770      	bx	lr
1a0023c4:	3801      	subs	r0, #1
1a0023c6:	4770      	bx	lr
1a0023c8:	2d00      	cmp	r5, #0
1a0023ca:	bf06      	itte	eq
1a0023cc:	4635      	moveq	r5, r6
1a0023ce:	3803      	subeq	r0, #3
1a0023d0:	3807      	subne	r0, #7
1a0023d2:	f015 0f01 	tst.w	r5, #1
1a0023d6:	d107      	bne.n	1a0023e8 <memchr+0x98>
1a0023d8:	3001      	adds	r0, #1
1a0023da:	f415 7f80 	tst.w	r5, #256	; 0x100
1a0023de:	bf02      	ittt	eq
1a0023e0:	3001      	addeq	r0, #1
1a0023e2:	f415 3fc0 	tsteq.w	r5, #98304	; 0x18000
1a0023e6:	3001      	addeq	r0, #1
1a0023e8:	bcf0      	pop	{r4, r5, r6, r7}
1a0023ea:	3801      	subs	r0, #1
1a0023ec:	4770      	bx	lr
1a0023ee:	bf00      	nop

1a0023f0 <__malloc_lock>:
1a0023f0:	4801      	ldr	r0, [pc, #4]	; (1a0023f8 <__malloc_lock+0x8>)
1a0023f2:	f7ff b9fe 	b.w	1a0017f2 <__retarget_lock_acquire_recursive>
1a0023f6:	bf00      	nop
1a0023f8:	100001a0 	.word	0x100001a0

1a0023fc <__malloc_unlock>:
1a0023fc:	4801      	ldr	r0, [pc, #4]	; (1a002404 <__malloc_unlock+0x8>)
1a0023fe:	f7ff b9f9 	b.w	1a0017f4 <__retarget_lock_release_recursive>
1a002402:	bf00      	nop
1a002404:	100001a0 	.word	0x100001a0

1a002408 <_free_r>:
1a002408:	b538      	push	{r3, r4, r5, lr}
1a00240a:	4605      	mov	r5, r0
1a00240c:	2900      	cmp	r1, #0
1a00240e:	d045      	beq.n	1a00249c <_free_r+0x94>
1a002410:	f851 3c04 	ldr.w	r3, [r1, #-4]
1a002414:	1f0c      	subs	r4, r1, #4
1a002416:	2b00      	cmp	r3, #0
1a002418:	bfb8      	it	lt
1a00241a:	18e4      	addlt	r4, r4, r3
1a00241c:	f7ff ffe8 	bl	1a0023f0 <__malloc_lock>
1a002420:	4a1f      	ldr	r2, [pc, #124]	; (1a0024a0 <_free_r+0x98>)
1a002422:	6813      	ldr	r3, [r2, #0]
1a002424:	4610      	mov	r0, r2
1a002426:	b933      	cbnz	r3, 1a002436 <_free_r+0x2e>
1a002428:	6063      	str	r3, [r4, #4]
1a00242a:	6014      	str	r4, [r2, #0]
1a00242c:	4628      	mov	r0, r5
1a00242e:	e8bd 4038 	ldmia.w	sp!, {r3, r4, r5, lr}
1a002432:	f7ff bfe3 	b.w	1a0023fc <__malloc_unlock>
1a002436:	42a3      	cmp	r3, r4
1a002438:	d90c      	bls.n	1a002454 <_free_r+0x4c>
1a00243a:	6821      	ldr	r1, [r4, #0]
1a00243c:	1862      	adds	r2, r4, r1
1a00243e:	4293      	cmp	r3, r2
1a002440:	bf04      	itt	eq
1a002442:	681a      	ldreq	r2, [r3, #0]
1a002444:	685b      	ldreq	r3, [r3, #4]
1a002446:	6063      	str	r3, [r4, #4]
1a002448:	bf04      	itt	eq
1a00244a:	1852      	addeq	r2, r2, r1
1a00244c:	6022      	streq	r2, [r4, #0]
1a00244e:	6004      	str	r4, [r0, #0]
1a002450:	e7ec      	b.n	1a00242c <_free_r+0x24>
1a002452:	4613      	mov	r3, r2
1a002454:	685a      	ldr	r2, [r3, #4]
1a002456:	b10a      	cbz	r2, 1a00245c <_free_r+0x54>
1a002458:	42a2      	cmp	r2, r4
1a00245a:	d9fa      	bls.n	1a002452 <_free_r+0x4a>
1a00245c:	6819      	ldr	r1, [r3, #0]
1a00245e:	1858      	adds	r0, r3, r1
1a002460:	42a0      	cmp	r0, r4
1a002462:	d10b      	bne.n	1a00247c <_free_r+0x74>
1a002464:	6820      	ldr	r0, [r4, #0]
1a002466:	4401      	add	r1, r0
1a002468:	1858      	adds	r0, r3, r1
1a00246a:	4282      	cmp	r2, r0
1a00246c:	6019      	str	r1, [r3, #0]
1a00246e:	d1dd      	bne.n	1a00242c <_free_r+0x24>
1a002470:	6810      	ldr	r0, [r2, #0]
1a002472:	6852      	ldr	r2, [r2, #4]
1a002474:	605a      	str	r2, [r3, #4]
1a002476:	4401      	add	r1, r0
1a002478:	6019      	str	r1, [r3, #0]
1a00247a:	e7d7      	b.n	1a00242c <_free_r+0x24>
1a00247c:	d902      	bls.n	1a002484 <_free_r+0x7c>
1a00247e:	230c      	movs	r3, #12
1a002480:	602b      	str	r3, [r5, #0]
1a002482:	e7d3      	b.n	1a00242c <_free_r+0x24>
1a002484:	6820      	ldr	r0, [r4, #0]
1a002486:	1821      	adds	r1, r4, r0
1a002488:	428a      	cmp	r2, r1
1a00248a:	bf04      	itt	eq
1a00248c:	6811      	ldreq	r1, [r2, #0]
1a00248e:	6852      	ldreq	r2, [r2, #4]
1a002490:	6062      	str	r2, [r4, #4]
1a002492:	bf04      	itt	eq
1a002494:	1809      	addeq	r1, r1, r0
1a002496:	6021      	streq	r1, [r4, #0]
1a002498:	605c      	str	r4, [r3, #4]
1a00249a:	e7c7      	b.n	1a00242c <_free_r+0x24>
1a00249c:	bd38      	pop	{r3, r4, r5, pc}
1a00249e:	bf00      	nop
1a0024a0:	10000190 	.word	0x10000190
1a0024a4:	5a4d4a45 	.word	0x5a4d4a45
1a0024a8:	58594c41 	.word	0x58594c41
1a0024ac:	46574256 	.word	0x46574256
1a0024b0:	55515243 	.word	0x55515243
1a0024b4:	53544e4f 	.word	0x53544e4f
1a0024b8:	484b4950 	.word	0x484b4950
1a0024bc:	00004447 	.word	0x00004447
1a0024c0:	48555259 	.word	0x48555259
1a0024c4:	444c5351 	.word	0x444c5351
1a0024c8:	474e5850 	.word	0x474e5850
1a0024cc:	494d4b4f 	.word	0x494d4b4f
1a0024d0:	5a464245 	.word	0x5a464245
1a0024d4:	4a565743 	.word	0x4a565743
1a0024d8:	00005441 	.word	0x00005441
1a0024dc:	4a505646 	.word	0x4a505646
1a0024e0:	594f4149 	.word	0x594f4149
1a0024e4:	5a524445 	.word	0x5a524445
1a0024e8:	43475758 	.word	0x43475758
1a0024ec:	51554b54 	.word	0x51554b54
1a0024f0:	4d4e4253 	.word	0x4d4e4253
1a0024f4:	00004c48 	.word	0x00004c48
1a0024f8:	00000052 	.word	0x00000052
1a0024fc:	00000046 	.word	0x00000046
1a002500:	00000057 	.word	0x00000057
1a002504:	0000004b 	.word	0x0000004b
1a002508:	00000041 	.word	0x00000041
1a00250c:	00004e41 	.word	0x00004e41
1a002510:	00000051 	.word	0x00000051
1a002514:	00000045 	.word	0x00000045
1a002518:	00000056 	.word	0x00000056
1a00251c:	0000004a 	.word	0x0000004a
1a002520:	0000005a 	.word	0x0000005a
1a002524:	00004d5a 	.word	0x00004d5a
1a002528:	464d4b45 	.word	0x464d4b45
1a00252c:	5144474c 	.word	0x5144474c
1a002530:	544e5a56 	.word	0x544e5a56
1a002534:	4859574f 	.word	0x4859574f
1a002538:	50535558 	.word	0x50535558
1a00253c:	52424941 	.word	0x52424941
1a002540:	00004a43 	.word	0x00004a43
1a002544:	4b444a41 	.word	0x4b444a41
1a002548:	55524953 	.word	0x55524953
1a00254c:	484c4258 	.word	0x484c4258
1a002550:	434d5457 	.word	0x434d5457
1a002554:	4e5a4751 	.word	0x4e5a4751
1a002558:	56465950 	.word	0x56465950
1a00255c:	0000454f 	.word	0x0000454f
1a002560:	48464442 	.word	0x48464442
1a002564:	50434c4a 	.word	0x50434c4a
1a002568:	56585452 	.word	0x56585452
1a00256c:	45594e5a 	.word	0x45594e5a
1a002570:	41475749 	.word	0x41475749
1a002574:	53554d4b 	.word	0x53554d4b
1a002578:	00004f51 	.word	0x00004f51
1a00257c:	564f5345 	.word	0x564f5345
1a002580:	414a5a50 	.word	0x414a5a50
1a002584:	49555159 	.word	0x49555159
1a002588:	4c584852 	.word	0x4c584852
1a00258c:	4754464e 	.word	0x4754464e
1a002590:	4d43444b 	.word	0x4d43444b
1a002594:	00004257 	.word	0x00004257
1a002598:	52425a56 	.word	0x52425a56
1a00259c:	59544947 	.word	0x59544947
1a0025a0:	44535055 	.word	0x44535055
1a0025a4:	584c484e 	.word	0x584c484e
1a0025a8:	4a4d5741 	.word	0x4a4d5741
1a0025ac:	45464f51 	.word	0x45464f51
1a0025b0:	00004b43 	.word	0x00004b43
1a0025b4:	5647504a 	.word	0x5647504a
1a0025b8:	464d554f 	.word	0x464d554f
1a0025bc:	45425159 	.word	0x45425159
1a0025c0:	525a484e 	.word	0x525a484e
1a0025c4:	53414b44 	.word	0x53414b44
1a0025c8:	43494c58 	.word	0x43494c58
1a0025cc:	00005754 	.word	0x00005754
1a0025d0:	484a5a4e 	.word	0x484a5a4e
1a0025d4:	58435247 	.word	0x58435247
1a0025d8:	5753594d 	.word	0x5753594d
1a0025dc:	46554f42 	.word	0x46554f42
1a0025e0:	4c564941 	.word	0x4c564941
1a0025e4:	514b4550 	.word	0x514b4550
1a0025e8:	00005444 	.word	0x00005444
1a0025ec:	48514b46 	.word	0x48514b46
1a0025f0:	4f584c54 	.word	0x4f584c54
1a0025f4:	534a4243 	.word	0x534a4243
1a0025f8:	525a4450 	.word	0x525a4450
1a0025fc:	57454d41 	.word	0x57454d41
1a002600:	5955494e 	.word	0x5955494e
1a002604:	00005647 	.word	0x00005647
1a002608:	44434241 	.word	0x44434241
1a00260c:	48474645 	.word	0x48474645
1a002610:	4c4b4a49 	.word	0x4c4b4a49
1a002614:	504f4e4d 	.word	0x504f4e4d
1a002618:	54535251 	.word	0x54535251
1a00261c:	58575655 	.word	0x58575655
1a002620:	ff005a59 	.word	0xff005a59
1a002624:	616c6f48 	.word	0x616c6f48
1a002628:	6e756d20 	.word	0x6e756d20
1a00262c:	61206f64 	.word	0x61206f64
1a002630:	64252074 	.word	0x64252074
1a002634:	00000a0d 	.word	0x00000a0d
1a002638:	65726944 	.word	0x65726944
1a00263c:	6f696363 	.word	0x6f696363
1a002640:	25203a6e 	.word	0x25203a6e
1a002644:	00000a64 	.word	0x00000a64
1a002648:	7274654c 	.word	0x7274654c
1a00264c:	6e652061 	.word	0x6e652061
1a002650:	70697263 	.word	0x70697263
1a002654:	61646174 	.word	0x61646174
1a002658:	6325203a 	.word	0x6325203a
1a00265c:	ffff000a 	.word	0xffff000a

1a002660 <InitClkStates>:
1a002660:	00010100 00010909 0001090a 01010701     ................
1a002670:	00010902 00010906 0101090c 0001090d     ................
1a002680:	0001090e 0001090f 00010910 00010911     ................
1a002690:	00010912 00010913 00011114 00011119     ................
1a0026a0:	0001111a 0001111b 08040201 0f0f0f03     ................
1a0026b0:	000000ff                                ....

1a0026b4 <periph_to_base>:
1a0026b4:	00050000 0020000a 00090024 00400040     ...... .$...@.@.
1a0026c4:	00600005 000400a6 00c300c0 00e00002     ..`.............
1a0026d4:	000100e0 01000100 01200003 00060120     .......... . ...
1a0026e4:	01400140 0142000c 00190142 01620162     @.@...B.B...b.b.
1a0026f4:	01820013 00120182 01a201a2 01c20011     ................
1a002704:	001001c2 01e201e2 0202000f 000e0202     ................
1a002714:	02220222 0223000d 001c0223              "."...#.#...

1a002720 <UART_BClock>:
1a002720:	01a201c2 01620182                       ......b.

1a002728 <UART_PClock>:
1a002728:	00820081 00a200a1                       ........

1a002730 <InitClkStates>:
1a002730:	00010308 00010307 01010f01              ............

1a00273c <pinmuxing>:
1a00273c:	00400a02 00400b02 00400c02 00440002     ..@...@...@...D.
1a00274c:	00440102 00440202 00520302 00520402     ..D...D...R...R.
1a00275c:	00520509 00570609 00570206 00500001     ..R...W...W...P.
1a00276c:	00500101 00500201 00500601 00f30f01     ..P...P...P.....
1a00277c:	00f71001 00f31101 00b31201 00f01301     ................
1a00278c:	00b31401 00b60707 00f20000 00b60100     ................

1a00279c <ExtRateIn>:
1a00279c:	00000000                                ....

1a0027a0 <OscRateIn>:
1a0027a0:	00b71b00                                ....

1a0027a4 <gpioLEDBits>:
1a0027a4:	0b010e00 00050c01 02050105              ............

1a0027b0 <_ctype_>:
1a0027b0:	20202000 20202020 28282020 20282828     .         ((((( 
1a0027c0:	20202020 20202020 20202020 20202020                     
1a0027d0:	10108820 10101010 10101010 10101010      ...............
1a0027e0:	04040410 04040404 10040404 10101010     ................
1a0027f0:	41411010 41414141 01010101 01010101     ..AAAAAA........
1a002800:	01010101 01010101 01010101 10101010     ................
1a002810:	42421010 42424242 02020202 02020202     ..BBBBBB........
1a002820:	02020202 02020202 02020202 10101010     ................
1a002830:	00000020 00000000 00000000 00000000      ...............
	...
1a0028b0:	ffffff00                                ....

1a0028b4 <__sf_fake_stderr>:
	...

1a0028d4 <__sf_fake_stdin>:
	...

1a0028f4 <__sf_fake_stdout>:
	...

1a002914 <_global_impure_ptr>:
1a002914:	10000074 2b302d23 6c680020 6665004c     t...#-0+ .hlL.ef
1a002924:	47464567 32313000 36353433 41393837     gEFG.0123456789A
1a002934:	45444342 31300046 35343332 39383736     BCDEF.0123456789
1a002944:	64636261 ff006665                       abcdef..
